MP2COD 4.1, COFF to COD File Converter
Copyright (c) 2006 Microchip Technology Inc.
Listing File Generated: Fri Mar 16 22:53:13 2007


Address  Value    Disassembly              Source                                                                           File
-------  -------  -----------------------  -------------------------------------------------------------------------------  -----
                                           /* $Id: c018i.c,v 1.7 2006/11/15 22:53:12 moshtaa Exp $ */                       C:\MCC18\src\traditional\startup\c018i.c
                                                                                                                            C:\MCC18\src\traditional\startup\c018i.c
                                           /* Copyright (c)1999 Microchip Technology */                                     C:\MCC18\src\traditional\startup\c018i.c
                                                                                                                            C:\MCC18\src\traditional\startup\c018i.c
                                           /* MPLAB-C18 startup code, including initialized data */                         C:\MCC18\src\traditional\startup\c018i.c
                                                                                                                            C:\MCC18\src\traditional\startup\c018i.c
                                           /* external reference to __init() function */                                    C:\MCC18\src\traditional\startup\c018i.c
                                           extern void __init (void);                                                       C:\MCC18\src\traditional\startup\c018i.c
                                           /* external reference to the user's main routine */                              C:\MCC18\src\traditional\startup\c018i.c
                                           extern void main (void);                                                         C:\MCC18\src\traditional\startup\c018i.c
                                           /* prototype for the startup function */                                         C:\MCC18\src\traditional\startup\c018i.c
                                           void _entry (void);                                                              C:\MCC18\src\traditional\startup\c018i.c
                                           void _startup (void);                                                            C:\MCC18\src\traditional\startup\c018i.c
                                           /* prototype for the initialized data setup */                                   C:\MCC18\src\traditional\startup\c018i.c
                                           void _do_cinit (void);                                                           C:\MCC18\src\traditional\startup\c018i.c
                                                                                                                            C:\MCC18\src\traditional\startup\c018i.c
                                           extern volatile near unsigned long short TBLPTR;                                 C:\MCC18\src\traditional\startup\c018i.c
                                           extern near unsigned FSR0;                                                       C:\MCC18\src\traditional\startup\c018i.c
                                           extern near char __FPFLAGS;                                                      C:\MCC18\src\traditional\startup\c018i.c
                                           #define RND 6                                                                    C:\MCC18\src\traditional\startup\c018i.c
                                                                                                                            C:\MCC18\src\traditional\startup\c018i.c
                                           #pragma code _entry_scn=0x000000                                                 C:\MCC18\src\traditional\startup\c018i.c
                                           void                                                                             C:\MCC18\src\traditional\startup\c018i.c
                                           _entry (void)                                                                    C:\MCC18\src\traditional\startup\c018i.c
                                           {                                                                                C:\MCC18\src\traditional\startup\c018i.c
000000   ef40     GOTO      0x680          _asm goto _startup _endasm                                                       C:\MCC18\src\traditional\startup\c018i.c
000002   f003                                                                                                               
                                                                                                                            C:\MCC18\src\traditional\startup\c018i.c
000004   0012     RETURN    0x0            }                                                                                C:\MCC18\src\traditional\startup\c018i.c
                                           #pragma code _startup_scn                                                        C:\MCC18\src\traditional\startup\c018i.c
                                           void                                                                             C:\MCC18\src\traditional\startup\c018i.c
                                           _startup (void)                                                                  C:\MCC18\src\traditional\startup\c018i.c
                                           {                                                                                C:\MCC18\src\traditional\startup\c018i.c
                                             _asm                                                                           C:\MCC18\src\traditional\startup\c018i.c
                                               // Initialize the stack pointer                                              C:\MCC18\src\traditional\startup\c018i.c
000680   ee12     LFSR      0x1,0x200          lfsr 1, _stack                                                               C:\MCC18\src\traditional\startup\c018i.c
000682   f000                                                                                                               
000684   ee22     LFSR      0x2,0x200          lfsr 2, _stack                                                               C:\MCC18\src\traditional\startup\c018i.c
000686   f000                                                                                                               
                                                                                                                            C:\MCC18\src\traditional\startup\c018i.c
000688   6af8     CLRF      0xf8,0x0           clrf TBLPTRU, 0 // 1st silicon doesn't do this on POR                        C:\MCC18\src\traditional\startup\c018i.c
                                                                                                                            C:\MCC18\src\traditional\startup\c018i.c
00068a   9c01     BCF       0x1,0x6,0x0        bcf __FPFLAGS,RND,0 // Initialize rounding flag for floating point libs      C:\MCC18\src\traditional\startup\c018i.c
                                                                                                                            C:\MCC18\src\traditional\startup\c018i.c
                                               _endasm                                                                      C:\MCC18\src\traditional\startup\c018i.c
00068c   ecfc     CALL      0x3f8,0x0          _do_cinit ();                                                                C:\MCC18\src\traditional\startup\c018i.c
00068e   f001                                                                                                               
                                                                                                                            C:\MCC18\src\traditional\startup\c018i.c
                                           loop:                                                                            C:\MCC18\src\traditional\startup\c018i.c
                                                                                                                            C:\MCC18\src\traditional\startup\c018i.c
                                             // If user defined __init is not found, the one in clib.lib will be used       C:\MCC18\src\traditional\startup\c018i.c
000690   ec5c     CALL      0x6b8,0x0        __init ();                                                                     C:\MCC18\src\traditional\startup\c018i.c
000692   f003                                                                                                               
                                                                                                                            C:\MCC18\src\traditional\startup\c018i.c
                                             // Call the user's main routine                                                C:\MCC18\src\traditional\startup\c018i.c
000694   ec8b     CALL      0x116,0x0        main ();                                                                       C:\MCC18\src\traditional\startup\c018i.c
000696   f000                                                                                                               
                                                                                                                            C:\MCC18\src\traditional\startup\c018i.c
000698   d7fb     BRA       0x690            goto loop;                                                                     C:\MCC18\src\traditional\startup\c018i.c
00069a   0012     RETURN    0x0            }                               /* end _startup() */                             C:\MCC18\src\traditional\startup\c018i.c
                                                                                                                            C:\MCC18\src\traditional\startup\c018i.c
                                           /* MPLAB-C18 initialized data memory support */                                  C:\MCC18\src\traditional\startup\c018i.c
                                           /* The linker will populate the _cinit table */                                  C:\MCC18\src\traditional\startup\c018i.c
                                           extern far rom struct                                                            C:\MCC18\src\traditional\startup\c018i.c
                                           {                                                                                C:\MCC18\src\traditional\startup\c018i.c
                                             unsigned short num_init;                                                       C:\MCC18\src\traditional\startup\c018i.c
                                             struct _init_entry                                                             C:\MCC18\src\traditional\startup\c018i.c
                                             {                                                                              C:\MCC18\src\traditional\startup\c018i.c
                                               unsigned long from;                                                          C:\MCC18\src\traditional\startup\c018i.c
                                               unsigned long to;                                                            C:\MCC18\src\traditional\startup\c018i.c
                                               unsigned long size;                                                          C:\MCC18\src\traditional\startup\c018i.c
                                             }                                                                              C:\MCC18\src\traditional\startup\c018i.c
                                             entries[];                                                                     C:\MCC18\src\traditional\startup\c018i.c
                                           }                                                                                C:\MCC18\src\traditional\startup\c018i.c
                                           _cinit;                                                                          C:\MCC18\src\traditional\startup\c018i.c
                                                                                                                            C:\MCC18\src\traditional\startup\c018i.c
                                           #pragma code _cinit_scn                                                          C:\MCC18\src\traditional\startup\c018i.c
                                           void                                                                             C:\MCC18\src\traditional\startup\c018i.c
                                           _do_cinit (void)                                                                 C:\MCC18\src\traditional\startup\c018i.c
                                           {                                                                                C:\MCC18\src\traditional\startup\c018i.c
                                             /* we'll make the assumption in the following code that these statics          C:\MCC18\src\traditional\startup\c018i.c
                                              * will be allocated into the same bank.                                       C:\MCC18\src\traditional\startup\c018i.c
                                              */                                                                            C:\MCC18\src\traditional\startup\c018i.c
                                             static short long prom;                                                        C:\MCC18\src\traditional\startup\c018i.c
                                             static unsigned short curr_byte;                                               C:\MCC18\src\traditional\startup\c018i.c
                                             static unsigned short curr_entry;                                              C:\MCC18\src\traditional\startup\c018i.c
                                             static short long data_ptr;                                                    C:\MCC18\src\traditional\startup\c018i.c
                                                                                                                            C:\MCC18\src\traditional\startup\c018i.c
                                             // Initialized data...                                                         C:\MCC18\src\traditional\startup\c018i.c
0003f8   0e2a     MOVLW     0x2a             TBLPTR = (short long)&_cinit;                                                  C:\MCC18\src\traditional\startup\c018i.c
0003fa   6ef6     MOVWF     0xf6,0x0                                                                                        
0003fc   0e00     MOVLW     0x0                                                                                             
0003fe   6ef7     MOVWF     0xf7,0x0                                                                                        
000400   0e00     MOVLW     0x0                                                                                             
000402   6ef8     MOVWF     0xf8,0x0                                                                                        
                                             _asm                                                                           C:\MCC18\src\traditional\startup\c018i.c
000404   0100     MOVLB     0x0                movlb data_ptr                                                               C:\MCC18\src\traditional\startup\c018i.c
000406   0009     TBLRDPOSTINC                 tblrdpostinc                                                                 C:\MCC18\src\traditional\startup\c018i.c
000408   50f5     MOVF      0xf5,0x0,0x0       movf TABLAT, 0, 0                                                            C:\MCC18\src\traditional\startup\c018i.c
00040a   6f65     MOVWF     0x65,0x1           movwf curr_entry, 1                                                          C:\MCC18\src\traditional\startup\c018i.c
00040c   0009     TBLRDPOSTINC                 tblrdpostinc                                                                 C:\MCC18\src\traditional\startup\c018i.c
00040e   50f5     MOVF      0xf5,0x0,0x0       movf TABLAT, 0, 0                                                            C:\MCC18\src\traditional\startup\c018i.c
000410   6f66     MOVWF     0x66,0x1           movwf curr_entry+1, 1                                                        C:\MCC18\src\traditional\startup\c018i.c
                                             _endasm                                                                        C:\MCC18\src\traditional\startup\c018i.c
                                               //while (curr_entry)                                                         C:\MCC18\src\traditional\startup\c018i.c
                                               //{                                                                          C:\MCC18\src\traditional\startup\c018i.c
                                               test:                                                                        C:\MCC18\src\traditional\startup\c018i.c
                                               _asm                                                                         C:\MCC18\src\traditional\startup\c018i.c
000412   e103     BNZ       0x41a               bnz 3                                                                       C:\MCC18\src\traditional\startup\c018i.c
000414   6765     TSTFSZ    0x65,0x1           tstfsz curr_entry, 1                                                         C:\MCC18\src\traditional\startup\c018i.c
000416   d001     BRA       0x41a              bra 1                                                                        C:\MCC18\src\traditional\startup\c018i.c
                                               _endasm                                                                      C:\MCC18\src\traditional\startup\c018i.c
000418   d03d     BRA       0x494              goto done;                                                                   C:\MCC18\src\traditional\startup\c018i.c
                                                 /* Count down so we only have to look up the data in _cinit                C:\MCC18\src\traditional\startup\c018i.c
                                                  * once.                                                                   C:\MCC18\src\traditional\startup\c018i.c
                                                  *                                                                         C:\MCC18\src\traditional\startup\c018i.c
                                                  * At this point we know that TBLPTR points to the top of the current      C:\MCC18\src\traditional\startup\c018i.c
                                                  * entry in _cinit, so we can just start reading the from, to, and         C:\MCC18\src\traditional\startup\c018i.c
                                                  * size values.                                                            C:\MCC18\src\traditional\startup\c018i.c
                                                  */                                                                        C:\MCC18\src\traditional\startup\c018i.c
                                                 _asm                                                                       C:\MCC18\src\traditional\startup\c018i.c
                                           	/* read the source address */                                                   C:\MCC18\src\traditional\startup\c018i.c
00041a   0009     TBLRDPOSTINC             	tblrdpostinc                                                                    C:\MCC18\src\traditional\startup\c018i.c
00041c   50f5     MOVF      0xf5,0x0,0x0   	movf TABLAT, 0, 0                                                               C:\MCC18\src\traditional\startup\c018i.c
00041e   6f60     MOVWF     0x60,0x1       	movwf prom, 1                                                                   C:\MCC18\src\traditional\startup\c018i.c
000420   0009     TBLRDPOSTINC             	tblrdpostinc                                                                    C:\MCC18\src\traditional\startup\c018i.c
000422   50f5     MOVF      0xf5,0x0,0x0   	movf TABLAT, 0, 0                                                               C:\MCC18\src\traditional\startup\c018i.c
000424   6f61     MOVWF     0x61,0x1       	movwf prom+1, 1                                                                 C:\MCC18\src\traditional\startup\c018i.c
000426   0009     TBLRDPOSTINC             	tblrdpostinc                                                                    C:\MCC18\src\traditional\startup\c018i.c
000428   50f5     MOVF      0xf5,0x0,0x0   	movf TABLAT, 0, 0                                                               C:\MCC18\src\traditional\startup\c018i.c
00042a   6f62     MOVWF     0x62,0x1       	movwf prom+2, 1                                                                 C:\MCC18\src\traditional\startup\c018i.c
                                           	/* skip a byte since it's stored as a 32bit int */                              C:\MCC18\src\traditional\startup\c018i.c
00042c   0009     TBLRDPOSTINC             	tblrdpostinc                                                                    C:\MCC18\src\traditional\startup\c018i.c
                                           	/* read the destination address directly into FSR0 */                           C:\MCC18\src\traditional\startup\c018i.c
00042e   0009     TBLRDPOSTINC             	tblrdpostinc                                                                    C:\MCC18\src\traditional\startup\c018i.c
000430   50f5     MOVF      0xf5,0x0,0x0   	movf TABLAT, 0, 0                                                               C:\MCC18\src\traditional\startup\c018i.c
000432   6ee9     MOVWF     0xe9,0x0       	movwf FSR0L, 0                                                                  C:\MCC18\src\traditional\startup\c018i.c
000434   0009     TBLRDPOSTINC             	tblrdpostinc                                                                    C:\MCC18\src\traditional\startup\c018i.c
000436   50f5     MOVF      0xf5,0x0,0x0   	movf TABLAT, 0, 0                                                               C:\MCC18\src\traditional\startup\c018i.c
000438   6eea     MOVWF     0xea,0x0       	movwf FSR0H, 0                                                                  C:\MCC18\src\traditional\startup\c018i.c
                                           	/* skip two bytes since it's stored as a 32bit int */                           C:\MCC18\src\traditional\startup\c018i.c
00043a   0009     TBLRDPOSTINC             	tblrdpostinc                                                                    C:\MCC18\src\traditional\startup\c018i.c
00043c   0009     TBLRDPOSTINC             	tblrdpostinc                                                                    C:\MCC18\src\traditional\startup\c018i.c
                                           	/* read the destination address directly into FSR0 */                           C:\MCC18\src\traditional\startup\c018i.c
00043e   0009     TBLRDPOSTINC             	tblrdpostinc                                                                    C:\MCC18\src\traditional\startup\c018i.c
000440   50f5     MOVF      0xf5,0x0,0x0   	movf TABLAT, 0, 0                                                               C:\MCC18\src\traditional\startup\c018i.c
000442   6f63     MOVWF     0x63,0x1       	movwf curr_byte, 1                                                              C:\MCC18\src\traditional\startup\c018i.c
000444   0009     TBLRDPOSTINC             	tblrdpostinc                                                                    C:\MCC18\src\traditional\startup\c018i.c
000446   50f5     MOVF      0xf5,0x0,0x0   	movf TABLAT, 0, 0                                                               C:\MCC18\src\traditional\startup\c018i.c
000448   6f64     MOVWF     0x64,0x1       	movwf curr_byte+1, 1                                                            C:\MCC18\src\traditional\startup\c018i.c
                                           	/* skip two bytes since it's stored as a 32bit int */                           C:\MCC18\src\traditional\startup\c018i.c
00044a   0009     TBLRDPOSTINC             	tblrdpostinc                                                                    C:\MCC18\src\traditional\startup\c018i.c
00044c   0009     TBLRDPOSTINC             	tblrdpostinc                                                                    C:\MCC18\src\traditional\startup\c018i.c
                                                 _endasm                                                                    C:\MCC18\src\traditional\startup\c018i.c
                                                 //prom = data_ptr->from;                                                   C:\MCC18\src\traditional\startup\c018i.c
                                                 //FSR0 = data_ptr->to;                                                     C:\MCC18\src\traditional\startup\c018i.c
                                                 //curr_byte = (unsigned short) data_ptr->size;                             C:\MCC18\src\traditional\startup\c018i.c
                                                 /* the table pointer now points to the next entry. Save it                 C:\MCC18\src\traditional\startup\c018i.c
                                                  * off since we'll be using the table pointer to do the copying            C:\MCC18\src\traditional\startup\c018i.c
                                                  * for the entry.                                                          C:\MCC18\src\traditional\startup\c018i.c
                                                  */                                                                        C:\MCC18\src\traditional\startup\c018i.c
00044e   cff6     MOVFF     0xff6,0x67           data_ptr = TBLPTR;                                                         C:\MCC18\src\traditional\startup\c018i.c
000450   f067                                                                                                               
000452   cff7     MOVFF     0xff7,0x68                                                                                      
000454   f068                                                                                                               
000456   cff8     MOVFF     0xff8,0x69                                                                                      
000458   f069                                                                                                               
                                                                                                                            C:\MCC18\src\traditional\startup\c018i.c
                                                 /* now assign the source address to the table pointer */                   C:\MCC18\src\traditional\startup\c018i.c
00045a   c060     MOVFF     0x60,0xff6           TBLPTR = prom;                                                             C:\MCC18\src\traditional\startup\c018i.c
00045c   fff6                                                                                                               
00045e   c061     MOVFF     0x61,0xff7                                                                                      
000460   fff7                                                                                                               
000462   c062     MOVFF     0x62,0xff8                                                                                      
000464   fff8                                                                                                               
                                                                                                                            C:\MCC18\src\traditional\startup\c018i.c
                                                 /* do the copy loop */                                                     C:\MCC18\src\traditional\startup\c018i.c
                                                 _asm                                                                       C:\MCC18\src\traditional\startup\c018i.c
                                                   // determine if we have any more bytes to copy                           C:\MCC18\src\traditional\startup\c018i.c
000466   0100     MOVLB     0x0            	movlb curr_byte                                                                 C:\MCC18\src\traditional\startup\c018i.c
000468   5363     MOVF      0x63,0x1,0x1   	movf curr_byte, 1, 1                                                            C:\MCC18\src\traditional\startup\c018i.c
                                           copy_loop:                                                                       C:\MCC18\src\traditional\startup\c018i.c
00046a   e102     BNZ       0x470          	bnz 2 // copy_one_byte                                                          C:\MCC18\src\traditional\startup\c018i.c
00046c   5364     MOVF      0x64,0x1,0x1   	movf curr_byte + 1, 1, 1                                                        C:\MCC18\src\traditional\startup\c018i.c
00046e   e007     BZ        0x47e          	bz 7 // done_copying                                                            C:\MCC18\src\traditional\startup\c018i.c
                                                                                                                            C:\MCC18\src\traditional\startup\c018i.c
                                           copy_one_byte:                                                                   C:\MCC18\src\traditional\startup\c018i.c
000470   0009     TBLRDPOSTINC             	tblrdpostinc                                                                    C:\MCC18\src\traditional\startup\c018i.c
000472   50f5     MOVF      0xf5,0x0,0x0   	movf TABLAT, 0, 0                                                               C:\MCC18\src\traditional\startup\c018i.c
000474   6eee     MOVWF     0xee,0x0       	movwf POSTINC0, 0                                                               C:\MCC18\src\traditional\startup\c018i.c
                                                                                                                            C:\MCC18\src\traditional\startup\c018i.c
                                           	// decrement byte counter                                                       C:\MCC18\src\traditional\startup\c018i.c
000476   0763     DECF      0x63,0x1,0x1   	decf curr_byte, 1, 1                                                            C:\MCC18\src\traditional\startup\c018i.c
000478   e2f8     BC        0x46a          	bc -8 // copy_loop                                                              C:\MCC18\src\traditional\startup\c018i.c
00047a   0764     DECF      0x64,0x1,0x1           decf curr_byte + 1, 1, 1                                                 C:\MCC18\src\traditional\startup\c018i.c
00047c   d7f9     BRA       0x470          	bra -7 // copy_one_byte                                                         C:\MCC18\src\traditional\startup\c018i.c
                                                                                                                            C:\MCC18\src\traditional\startup\c018i.c
                                           done_copying:                                                                    C:\MCC18\src\traditional\startup\c018i.c
                                                                                                                            C:\MCC18\src\traditional\startup\c018i.c
                                                 _endasm                                                                    C:\MCC18\src\traditional\startup\c018i.c
                                                 /* restore the table pointer for the next entry */                         C:\MCC18\src\traditional\startup\c018i.c
00047e   c067     MOVFF     0x67,0xff6           TBLPTR = data_ptr;                                                         C:\MCC18\src\traditional\startup\c018i.c
000480   fff6                                                                                                               
000482   c068     MOVFF     0x68,0xff7                                                                                      
000484   fff7                                                                                                               
000486   c069     MOVFF     0x69,0xff8                                                                                      
000488   fff8                                                                                                               
                                                 /* next entry... */                                                        C:\MCC18\src\traditional\startup\c018i.c
00048a   0100     MOVLB     0x0                  curr_entry--;                                                              C:\MCC18\src\traditional\startup\c018i.c
00048c   0765     DECF      0x65,0x1,0x1                                                                                    
00048e   0e00     MOVLW     0x0                                                                                             
000490   5b66     SUBWFB    0x66,0x1,0x1                                                                                    
000492   d7bf     BRA       0x412                goto test;                                                                 C:\MCC18\src\traditional\startup\c018i.c
                                           done:                                                                            C:\MCC18\src\traditional\startup\c018i.c
                                           ;                                                                                C:\MCC18\src\traditional\startup\c018i.c
000494   0012     RETURN    0x0            }                                                                                C:\MCC18\src\traditional\startup\c018i.c
                                           /*                                                                               D:\Helicopter Project\source\Accelerometer\Accelerometer.c
                                           	Title: 	Accelerometer.c                                                         D:\Helicopter Project\source\Accelerometer\Accelerometer.c
                                                                                                                            D:\Helicopter Project\source\Accelerometer\Accelerometer.c
                                           	Author:	Kyle Wong                                                               D:\Helicopter Project\source\Accelerometer\Accelerometer.c
                                                                                                                            D:\Helicopter Project\source\Accelerometer\Accelerometer.c
                                           	Date:	26/09/05                                                                  D:\Helicopter Project\source\Accelerometer\Accelerometer.c
                                           	                                                                                D:\Helicopter Project\source\Accelerometer\Accelerometer.c
                                           	Description:	This program will communicate with a tri-axis accelerometer using SPI D:\Helicopter Project\source\Accelerometer\Accelerometer.c
                                           					communications.                                                             D:\Helicopter Project\source\Accelerometer\Accelerometer.c
                                                                                                                            D:\Helicopter Project\source\Accelerometer\Accelerometer.c
                                           	Notes:	done - May need to add delays in ShiftIO() function to slow down the SPI D:\Helicopter Project\source\Accelerometer\Accelerometer.c
                                           			- Use an array for a lookup table                                             D:\Helicopter Project\source\Accelerometer\Accelerometer.c
                                           			- PWM may not be useful in this application since the smallest resolution is  D:\Helicopter Project\source\Accelerometer\Accelerometer.c
                                           			  2.44kHz and we need 20ms ~ 50Hz                                             D:\Helicopter Project\source\Accelerometer\Accelerometer.c
                                           			- Try using compare interrupts to generate accurate pulse widths              D:\Helicopter Project\source\Accelerometer\Accelerometer.c
                                                                                                                            D:\Helicopter Project\source\Accelerometer\Accelerometer.c
                                           	To Do List:                                                                     D:\Helicopter Project\source\Accelerometer\Accelerometer.c
                                           			- Create a 5ms resolution RTC(25000 instructions)                             D:\Helicopter Project\source\Accelerometer\Accelerometer.c
                                           			- Need to incorporate I2C communications                                      D:\Helicopter Project\source\Accelerometer\Accelerometer.c
                                           			- Need to find a PIC with enough timers for at least 5 servos, consider looking at D:\Helicopter Project\source\Accelerometer\Accelerometer.c
                                           			  16-bit PICS                                                                 D:\Helicopter Project\source\Accelerometer\Accelerometer.c
                                                                                                                            D:\Helicopter Project\source\Accelerometer\Accelerometer.c
                                           	Compiled with MCC18 compiler (v8.01PL3)                                         D:\Helicopter Project\source\Accelerometer\Accelerometer.c
                                           	and MPLAB ver 7.5                                                               D:\Helicopter Project\source\Accelerometer\Accelerometer.c
                                           */                                                                               D:\Helicopter Project\source\Accelerometer\Accelerometer.c
                                           /************************** Include Section **************************/          D:\Helicopter Project\source\Accelerometer\Accelerometer.c
                                           #include <p18f4431.h>                                                            D:\Helicopter Project\source\Accelerometer\Accelerometer.c
                                           //#include <p18f4620.h>                                                          D:\Helicopter Project\source\Accelerometer\Accelerometer.c
                                           #include <delays.h>                                                              D:\Helicopter Project\source\Accelerometer\Accelerometer.c
                                           #include <xlcd.h>                                                                D:\Helicopter Project\source\Accelerometer\Accelerometer.c
                                           #include <spi.h>                                                                 D:\Helicopter Project\source\Accelerometer\Accelerometer.c
                                           #include <usart.h>                                                               D:\Helicopter Project\source\Accelerometer\Accelerometer.c
                                           #include <capture.h>                                                             D:\Helicopter Project\source\Accelerometer\Accelerometer.c
                                           #include "Accelerometer.h"                                                       D:\Helicopter Project\source\Accelerometer\Accelerometer.c
                                                                                                                            D:\Helicopter Project\source\Accelerometer\Accelerometer.c
                                           /*************************** Program Control *************************/          D:\Helicopter Project\source\Accelerometer\Accelerometer.c
                                           #define LCD_DISPLAY 	1                                                           D:\Helicopter Project\source\Accelerometer\Accelerometer.c
                                           #define LCD_ON 		0                                                               D:\Helicopter Project\source\Accelerometer\Accelerometer.c
                                           /*************************** Defines *********************************/          D:\Helicopter Project\source\Accelerometer\Accelerometer.c
                                           #define TAA_X_AXIS	0x03		// X-Axis                                               D:\Helicopter Project\source\Accelerometer\Accelerometer.c
                                           #define TAA_Y_AXIS	0x0B		// Z-Axis                                               D:\Helicopter Project\source\Accelerometer\Accelerometer.c
                                           #define TAA_Z_AXIS	0x13		// Y-Axis                                               D:\Helicopter Project\source\Accelerometer\Accelerometer.c
                                           #define DIO_SEND	LATBbits.LATB7                                                  D:\Helicopter Project\source\Accelerometer\Accelerometer.c
                                           #define DIO_GET		PORTBbits.RB7                                                   D:\Helicopter Project\source\Accelerometer\Accelerometer.c
                                           #define CLK			LATBbits.LATB6                                                     D:\Helicopter Project\source\Accelerometer\Accelerometer.c
                                           #define TAA			LATBbits.LATB5                                                     D:\Helicopter Project\source\Accelerometer\Accelerometer.c
                                           #define DIO_DIR		TRISBbits.TRISB7                                                D:\Helicopter Project\source\Accelerometer\Accelerometer.c
                                           #define CLK_DIR		TRISBbits.TRISB6                                                D:\Helicopter Project\source\Accelerometer\Accelerometer.c
                                           #define TAA_DIR		TRISBbits.TRISB5	// Tri-Axis Accellerometer                     D:\Helicopter Project\source\Accelerometer\Accelerometer.c
                                           #define	DEBUG_DELAY	200                                                          D:\Helicopter Project\source\Accelerometer\Accelerometer.c
                                                                                                                            D:\Helicopter Project\source\Accelerometer\Accelerometer.c
                                           /*************************** Definitions *****************************/          D:\Helicopter Project\source\Accelerometer\Accelerometer.c
                                           typedef union                                                                    D:\Helicopter Project\source\Accelerometer\Accelerometer.c
                                           {                                                                                D:\Helicopter Project\source\Accelerometer\Accelerometer.c
                                           	char byte[2];                                                                   D:\Helicopter Project\source\Accelerometer\Accelerometer.c
                                           	int D_byte;                                                                     D:\Helicopter Project\source\Accelerometer\Accelerometer.c
                                           	//long D_word;                                                                  D:\Helicopter Project\source\Accelerometer\Accelerometer.c
                                           }WORD;                                                                           D:\Helicopter Project\source\Accelerometer\Accelerometer.c
                                                                                                                            D:\Helicopter Project\source\Accelerometer\Accelerometer.c
                                           /*************************** Global Variables ************************/          D:\Helicopter Project\source\Accelerometer\Accelerometer.c
                                           WORD Capture;                                                                    D:\Helicopter Project\source\Accelerometer\Accelerometer.c
                                                                                                                            D:\Helicopter Project\source\Accelerometer\Accelerometer.c
                                           /*************************** Initialization Functions ****************/          D:\Helicopter Project\source\Accelerometer\Accelerometer.c
                                           void OpenLCD(void);                                                              D:\Helicopter Project\source\Accelerometer\Accelerometer.c
                                                                                                                            D:\Helicopter Project\source\Accelerometer\Accelerometer.c
                                           void SerialInit(void);                                                           D:\Helicopter Project\source\Accelerometer\Accelerometer.c
                                                                                                                            D:\Helicopter Project\source\Accelerometer\Accelerometer.c
                                           char ShiftIO(WORD byte_out, char out_bits, WORD *byte_in, char in_bits);         D:\Helicopter Project\source\Accelerometer\Accelerometer.c
                                                                                                                            D:\Helicopter Project\source\Accelerometer\Accelerometer.c
                                           /*************************** Interrupt Section ***********************/          D:\Helicopter Project\source\Accelerometer\Accelerometer.c
                                           /********************** Interrupt Function Definition ****************/          D:\Helicopter Project\source\Accelerometer\Accelerometer.c
                                           void CCPINT(void);                                                               D:\Helicopter Project\source\Accelerometer\Accelerometer.c
                                                                                                                            D:\Helicopter Project\source\Accelerometer\Accelerometer.c
                                           /************************* Interrupt Functions ***********************/          D:\Helicopter Project\source\Accelerometer\Accelerometer.c
                                           #pragma interrupt INTERRUPT                                                      D:\Helicopter Project\source\Accelerometer\Accelerometer.c
000070   cfda     MOVFF     0xfda,0xfe4    void INTERRUPT(void)                                                             D:\Helicopter Project\source\Accelerometer\Accelerometer.c
000072   ffe4                                                                                                               
000074   cfe2     MOVFF     0xfe2,0xfda                                                                                     
000076   ffda                                                                                                               
000078   cfe9     MOVFF     0xfe9,0xfe4                                                                                     
00007a   ffe4                                                                                                               
00007c   cfea     MOVFF     0xfea,0xfe4                                                                                     
00007e   ffe4                                                                                                               
000080   cff6     MOVFF     0xff6,0xfe4                                                                                     
000082   ffe4                                                                                                               
000084   cff7     MOVFF     0xff7,0xfe4                                                                                     
000086   ffe4                                                                                                               
000088   cff5     MOVFF     0xff5,0xfe4                                                                                     
00008a   ffe4                                                                                                               
00008c   cff3     MOVFF     0xff3,0xfe4                                                                                     
00008e   ffe4                                                                                                               
000090   cff4     MOVFF     0xff4,0xfe4                                                                                     
000092   ffe4                                                                                                               
000094   cffa     MOVFF     0xffa,0xfe4                                                                                     
000096   ffe4                                                                                                               
000098   ee00     LFSR      0x0,0x0                                                                                         
00009a   f000                                                                                                               
00009c   0e02     MOVLW     0x2                                                                                             
00009e   04e8     DECF      0xe8,0x0,0x0                                                                                    
0000a0   e303     BNC       0xa8                                                                                            
0000a2   cfee     MOVFF     0xfee,0xfe4                                                                                     
0000a4   ffe4                                                                                                               
0000a6   d7fb     BRA       0x9e                                                                                            
0000a8   ee00     LFSR      0x0,0x2                                                                                         
0000aa   f002                                                                                                               
0000ac   0e02     MOVLW     0x2                                                                                             
0000ae   04e8     DECF      0xe8,0x0,0x0                                                                                    
0000b0   e303     BNC       0xb8                                                                                            
0000b2   cfee     MOVFF     0xfee,0xfe4                                                                                     
0000b4   ffe4                                                                                                               
0000b6   d7fb     BRA       0xae                                                                                            
0000b8   52e6     MOVF      0xe6,0x1,0x0                                                                                    
                                           {                                                                                D:\Helicopter Project\source\Accelerometer\Accelerometer.c
0000ba   b49e     BTFSC     0x9e,0x2,0x0   	if(PIR1bits.CCP1IF)			// capture compare interrupt                              D:\Helicopter Project\source\Accelerometer\Accelerometer.c
                                           	{                                                                               D:\Helicopter Project\source\Accelerometer\Accelerometer.c
0000bc   d824     RCALL     0x106          		CCPINT();                                                                      D:\Helicopter Project\source\Accelerometer\Accelerometer.c
                                           	}                                                                               D:\Helicopter Project\source\Accelerometer\Accelerometer.c
0000be   52e5     MOVF      0xe5,0x1,0x0   }                                                                                D:\Helicopter Project\source\Accelerometer\Accelerometer.c
0000c0   ee00     LFSR      0x0,0x3                                                                                         
0000c2   f003                                                                                                               
0000c4   0e02     MOVLW     0x2                                                                                             
0000c6   04e8     DECF      0xe8,0x0,0x0                                                                                    
0000c8   e303     BNC       0xd0                                                                                            
0000ca   cfe5     MOVFF     0xfe5,0xfed                                                                                     
0000cc   ffed                                                                                                               
0000ce   d7fb     BRA       0xc6                                                                                            
0000d0   ee00     LFSR      0x0,0x1                                                                                         
0000d2   f001                                                                                                               
0000d4   0e02     MOVLW     0x2                                                                                             
0000d6   04e8     DECF      0xe8,0x0,0x0                                                                                    
0000d8   e303     BNC       0xe0                                                                                            
0000da   cfe5     MOVFF     0xfe5,0xfed                                                                                     
0000dc   ffed                                                                                                               
0000de   d7fb     BRA       0xd6                                                                                            
0000e0   cfe5     MOVFF     0xfe5,0xffa                                                                                     
0000e2   fffa                                                                                                               
0000e4   cfe5     MOVFF     0xfe5,0xff4                                                                                     
0000e6   fff4                                                                                                               
0000e8   cfe5     MOVFF     0xfe5,0xff3                                                                                     
0000ea   fff3                                                                                                               
0000ec   cfe5     MOVFF     0xfe5,0xff5                                                                                     
0000ee   fff5                                                                                                               
0000f0   cfe5     MOVFF     0xfe5,0xff7                                                                                     
0000f2   fff7                                                                                                               
0000f4   cfe5     MOVFF     0xfe5,0xff6                                                                                     
0000f6   fff6                                                                                                               
0000f8   cfe5     MOVFF     0xfe5,0xfea                                                                                     
0000fa   ffea                                                                                                               
0000fc   cfe5     MOVFF     0xfe5,0xfe9                                                                                     
0000fe   ffe9                                                                                                               
000100   cfe5     MOVFF     0xfe5,0xfda                                                                                     
000102   ffda                                                                                                               
000104   0011     RETFIE    0x1                                                                                             
                                                                                                                            D:\Helicopter Project\source\Accelerometer\Accelerometer.c
                                           void CCPINT(void)                                                                D:\Helicopter Project\source\Accelerometer\Accelerometer.c
                                           {                                                                                D:\Helicopter Project\source\Accelerometer\Accelerometer.c
000106   949e     BCF       0x9e,0x2,0x0   	PIR1bits.CCP1IF = 0; 		// clear the capture flag                                D:\Helicopter Project\source\Accelerometer\Accelerometer.c
000108   cfce     MOVFF     0xfce,0x6a     	Capture.byte[0] = TMR1L;                                                        D:\Helicopter Project\source\Accelerometer\Accelerometer.c
00010a   f06a                                                                                                               
00010c   6ace     CLRF      0xce,0x0       	TMR1L = 0;					// Clear the low timer                                           D:\Helicopter Project\source\Accelerometer\Accelerometer.c
00010e   cfcf     MOVFF     0xfcf,0x6b     	Capture.byte[1] = TMR1H;                                                        D:\Helicopter Project\source\Accelerometer\Accelerometer.c
000110   f06b                                                                                                               
000112   6acf     CLRF      0xcf,0x0       	TMR1H = 0;					// Clear the high timer                                          D:\Helicopter Project\source\Accelerometer\Accelerometer.c
000114   0012     RETURN    0x0            }                                                                                D:\Helicopter Project\source\Accelerometer\Accelerometer.c
                                                                                                                            D:\Helicopter Project\source\Accelerometer\Accelerometer.c
                                           #pragma code high_int_vector = 0x08					/* change to interrupt page*/            D:\Helicopter Project\source\Accelerometer\Accelerometer.c
                                           void interrupt_at_high_vector(void)                                              D:\Helicopter Project\source\Accelerometer\Accelerometer.c
                                           {                                                                                D:\Helicopter Project\source\Accelerometer\Accelerometer.c
000008   ef38     GOTO      0x70           	_asm GOTO INTERRUPT _endasm                                                     D:\Helicopter Project\source\Accelerometer\Accelerometer.c
00000a   f000                                                                                                               
00000c   0012     RETURN    0x0            }                                                                                D:\Helicopter Project\source\Accelerometer\Accelerometer.c
                                                                                                                            D:\Helicopter Project\source\Accelerometer\Accelerometer.c
                                           #pragma code 										/* return to default code section */                      D:\Helicopter Project\source\Accelerometer\Accelerometer.c
                                                                                                                            D:\Helicopter Project\source\Accelerometer\Accelerometer.c
000116   cfd9     MOVFF     0xfd9,0xfe6    void main(void)                                                                  D:\Helicopter Project\source\Accelerometer\Accelerometer.c
000118   ffe6                                                                                                               
00011a   cfe1     MOVFF     0xfe1,0xfd9                                                                                     
00011c   ffd9                                                                                                               
00011e   0e15     MOVLW     0x15                                                                                            
000120   26e1     ADDWF     0xe1,0x1,0x0                                                                                    
                                           {                                                                                D:\Helicopter Project\source\Accelerometer\Accelerometer.c
                                           /*********** Varible declaration *****************/                              D:\Helicopter Project\source\Accelerometer\Accelerometer.c
                                           	unsigned char command;                                                          D:\Helicopter Project\source\Accelerometer\Accelerometer.c
                                           	unsigned char data[4];                                                          D:\Helicopter Project\source\Accelerometer\Accelerometer.c
                                           	int angle;                                                                      D:\Helicopter Project\source\Accelerometer\Accelerometer.c
                                           	WORD byte_out, byte_in, X_axis, Y_axis, Z_axis;                                 D:\Helicopter Project\source\Accelerometer\Accelerometer.c
                                           	char out_bits, in_bits;                                                         D:\Helicopter Project\source\Accelerometer\Accelerometer.c
                                           	int value;                                                                      D:\Helicopter Project\source\Accelerometer\Accelerometer.c
                                                                                                                            D:\Helicopter Project\source\Accelerometer\Accelerometer.c
                                           #if LCD_ON                                                                       D:\Helicopter Project\source\Accelerometer\Accelerometer.c
                                           	char string1[21] = {"<--Accelerometer--->"};	// Create an empty lineset         D:\Helicopter Project\source\Accelerometer\Accelerometer.c
                                           	char string2[21] = {"Axis x value:   "};                                        D:\Helicopter Project\source\Accelerometer\Accelerometer.c
                                           	char string3[21] = {"Axis y value:   "};                                        D:\Helicopter Project\source\Accelerometer\Accelerometer.c
                                           	char string4[21] = {"Axis z value:   "};                                        D:\Helicopter Project\source\Accelerometer\Accelerometer.c
                                           #endif                                                                           D:\Helicopter Project\source\Accelerometer\Accelerometer.c
                                                                                                                            D:\Helicopter Project\source\Accelerometer\Accelerometer.c
                                           /********** Beginning of main code **************/                               D:\Helicopter Project\source\Accelerometer\Accelerometer.c
000122   6a93     CLRF      0x93,0x0       	TRISB = 0;                                                                      D:\Helicopter Project\source\Accelerometer\Accelerometer.c
000124   9a93     BCF       0x93,0x5,0x0   	TAA_DIR = 0;                                                                    D:\Helicopter Project\source\Accelerometer\Accelerometer.c
000126   8a8a     BSF       0x8a,0x5,0x0   	TAA = 1;                                                                        D:\Helicopter Project\source\Accelerometer\Accelerometer.c
                                                                                                                            D:\Helicopter Project\source\Accelerometer\Accelerometer.c
                                           #if LCD_ON                                                                       D:\Helicopter Project\source\Accelerometer\Accelerometer.c
                                           	OpenLCD();                                                                      D:\Helicopter Project\source\Accelerometer\Accelerometer.c
                                           	                                                                                D:\Helicopter Project\source\Accelerometer\Accelerometer.c
                                           	while(BusyXLCD());		// everything is OK                                         D:\Helicopter Project\source\Accelerometer\Accelerometer.c
                                           	WriteCmdXLCD(LCD_LINE1);// write over whatever is on line 1 of the LCD          D:\Helicopter Project\source\Accelerometer\Accelerometer.c
                                                                                                                            D:\Helicopter Project\source\Accelerometer\Accelerometer.c
                                           	while(BusyXLCD());                                                              D:\Helicopter Project\source\Accelerometer\Accelerometer.c
                                           	putsXLCD(string1);                                                              D:\Helicopter Project\source\Accelerometer\Accelerometer.c
                                           	                                                                                D:\Helicopter Project\source\Accelerometer\Accelerometer.c
                                           	while(BusyXLCD());		// everything is OK                                         D:\Helicopter Project\source\Accelerometer\Accelerometer.c
                                           	WriteCmdXLCD(LCD_LINE2);// write over whatever is on line 1 of the LCD          D:\Helicopter Project\source\Accelerometer\Accelerometer.c
                                           	                                                                                D:\Helicopter Project\source\Accelerometer\Accelerometer.c
                                           	while(BusyXLCD());                                                              D:\Helicopter Project\source\Accelerometer\Accelerometer.c
                                           	putsXLCD(string2);                                                              D:\Helicopter Project\source\Accelerometer\Accelerometer.c
                                           	                                                                                D:\Helicopter Project\source\Accelerometer\Accelerometer.c
                                           	while(BusyXLCD());		// everything is OK                                         D:\Helicopter Project\source\Accelerometer\Accelerometer.c
                                           	WriteCmdXLCD(LCD_LINE3);// write over whatever is on line 1 of the LCD          D:\Helicopter Project\source\Accelerometer\Accelerometer.c
                                           	                                                                                D:\Helicopter Project\source\Accelerometer\Accelerometer.c
                                           	while(BusyXLCD());                                                              D:\Helicopter Project\source\Accelerometer\Accelerometer.c
                                           	putsXLCD(string3);                                                              D:\Helicopter Project\source\Accelerometer\Accelerometer.c
                                           	                                                                                D:\Helicopter Project\source\Accelerometer\Accelerometer.c
                                           	while(BusyXLCD());		// everything is OK                                         D:\Helicopter Project\source\Accelerometer\Accelerometer.c
                                           	WriteCmdXLCD(LCD_LINE4);// write over whatever is on line 1 of the LCD          D:\Helicopter Project\source\Accelerometer\Accelerometer.c
                                           	                                                                                D:\Helicopter Project\source\Accelerometer\Accelerometer.c
                                           	while(BusyXLCD());                                                              D:\Helicopter Project\source\Accelerometer\Accelerometer.c
                                           	putsXLCD(string4);                                                              D:\Helicopter Project\source\Accelerometer\Accelerometer.c
                                           #endif                                                                           D:\Helicopter Project\source\Accelerometer\Accelerometer.c
                                           /********* TROUBLESHOOTING TOOL *********                                        D:\Helicopter Project\source\Accelerometer\Accelerometer.c
                                           		while(BusyUSART());                                                            D:\Helicopter Project\source\Accelerometer\Accelerometer.c
                                           		TXREG = string2[17];                                                           D:\Helicopter Project\source\Accelerometer\Accelerometer.c
                                           */                                                                               D:\Helicopter Project\source\Accelerometer\Accelerometer.c
                                                                                                                            D:\Helicopter Project\source\Accelerometer\Accelerometer.c
                                           /******** VARIABLE INITIALIZATION ************/                                  D:\Helicopter Project\source\Accelerometer\Accelerometer.c
000128   0e18     MOVLW     0x18           	byte_out.byte[0] = 0x18;                                                        D:\Helicopter Project\source\Accelerometer\Accelerometer.c
00012a   6ef3     MOVWF     0xf3,0x0                                                                                        
00012c   0e07     MOVLW     0x7                                                                                             
00012e   cff3     MOVFF     0xff3,0xfdb                                                                                     
000130   ffdb                                                                                                               
000132   0e09     MOVLW     0x9            	byte_in.D_byte = 0;                                                             D:\Helicopter Project\source\Accelerometer\Accelerometer.c
000134   6adb     CLRF      0xdb,0x0                                                                                        
000136   0e0a     MOVLW     0xa                                                                                             
000138   6adb     CLRF      0xdb,0x0                                                                                        
00013a   0e0b     MOVLW     0xb            	X_axis.D_byte = 0;                                                              D:\Helicopter Project\source\Accelerometer\Accelerometer.c
00013c   6adb     CLRF      0xdb,0x0                                                                                        
00013e   0e0c     MOVLW     0xc                                                                                             
000140   6adb     CLRF      0xdb,0x0                                                                                        
000142   0e0d     MOVLW     0xd            	Y_axis.D_byte = 0;                                                              D:\Helicopter Project\source\Accelerometer\Accelerometer.c
000144   6adb     CLRF      0xdb,0x0                                                                                        
000146   0e0e     MOVLW     0xe                                                                                             
000148   6adb     CLRF      0xdb,0x0                                                                                        
00014a   0e0f     MOVLW     0xf            	Z_axis.D_byte = 0;                                                              D:\Helicopter Project\source\Accelerometer\Accelerometer.c
00014c   6adb     CLRF      0xdb,0x0                                                                                        
00014e   0e10     MOVLW     0x10                                                                                            
000150   6adb     CLRF      0xdb,0x0                                                                                        
000152   0e05     MOVLW     0x5            	out_bits = 5;                                                                   D:\Helicopter Project\source\Accelerometer\Accelerometer.c
000154   6ef3     MOVWF     0xf3,0x0                                                                                        
000156   0e11     MOVLW     0x11                                                                                            
000158   cff3     MOVFF     0xff3,0xfdb                                                                                     
00015a   ffdb                                                                                                               
00015c   0e0f     MOVLW     0xf            	in_bits = 15;                                                                   D:\Helicopter Project\source\Accelerometer\Accelerometer.c
00015e   6ef3     MOVWF     0xf3,0x0                                                                                        
000160   0e12     MOVLW     0x12                                                                                            
000162   cff3     MOVFF     0xff3,0xfdb                                                                                     
000164   ffdb                                                                                                               
000166   df62     RCALL     0x2c           	SerialInit();                                                                   D:\Helicopter Project\source\Accelerometer\Accelerometer.c
000168   0e13     MOVLW     0x13           	value = 0;                                                                      D:\Helicopter Project\source\Accelerometer\Accelerometer.c
00016a   6adb     CLRF      0xdb,0x0                                                                                        
00016c   0e14     MOVLW     0x14                                                                                            
00016e   6adb     CLRF      0xdb,0x0                                                                                        
                                           /******** START OF MAIN LOOP *****************/                                  D:\Helicopter Project\source\Accelerometer\Accelerometer.c
                                           	do                                                                              D:\Helicopter Project\source\Accelerometer\Accelerometer.c
                                           	{                                                                               D:\Helicopter Project\source\Accelerometer\Accelerometer.c
                                           /******** INITILIZE LOOP VARIABLES ***********/                                  D:\Helicopter Project\source\Accelerometer\Accelerometer.c
000170   0e09     MOVLW     0x9            		byte_in.D_byte = 0;                                                            D:\Helicopter Project\source\Accelerometer\Accelerometer.c
000172   6adb     CLRF      0xdb,0x0                                                                                        
000174   0e0a     MOVLW     0xa                                                                                             
000176   6adb     CLRF      0xdb,0x0                                                                                        
000178   0e0b     MOVLW     0xb            		X_axis.D_byte = 0;                                                             D:\Helicopter Project\source\Accelerometer\Accelerometer.c
00017a   6adb     CLRF      0xdb,0x0                                                                                        
00017c   0e0c     MOVLW     0xc                                                                                             
00017e   6adb     CLRF      0xdb,0x0                                                                                        
000180   0e0d     MOVLW     0xd            		Y_axis.D_byte = 0;                                                             D:\Helicopter Project\source\Accelerometer\Accelerometer.c
000182   6adb     CLRF      0xdb,0x0                                                                                        
000184   0e0e     MOVLW     0xe                                                                                             
000186   6adb     CLRF      0xdb,0x0                                                                                        
000188   0e0f     MOVLW     0xf            		Z_axis.D_byte = 0;                                                             D:\Helicopter Project\source\Accelerometer\Accelerometer.c
00018a   6adb     CLRF      0xdb,0x0                                                                                        
00018c   0e10     MOVLW     0x10                                                                                            
00018e   6adb     CLRF      0xdb,0x0                                                                                        
                                                                                                                            D:\Helicopter Project\source\Accelerometer\Accelerometer.c
                                           /******** Aquiring Tilt measurements *********/                                  D:\Helicopter Project\source\Accelerometer\Accelerometer.c
000190   0e03     MOVLW     0x3            		byte_out.byte[0] = TAA_X_AXIS;                                                 D:\Helicopter Project\source\Accelerometer\Accelerometer.c
000192   6ef3     MOVWF     0xf3,0x0                                                                                        
000194   0e07     MOVLW     0x7                                                                                             
000196   cff3     MOVFF     0xff3,0xfdb                                                                                     
000198   ffdb                                                                                                               
00019a   9a8a     BCF       0x8a,0x5,0x0   		TAA = 0;                                                                       D:\Helicopter Project\source\Accelerometer\Accelerometer.c
00019c   0e12     MOVLW     0x12           		ShiftIO(byte_out, out_bits, &X_axis, in_bits);                                 D:\Helicopter Project\source\Accelerometer\Accelerometer.c
00019e   cfdb     MOVFF     0xfdb,0xfe6                                                                                     
0001a0   ffe6                                                                                                               
0001a2   50d9     MOVF      0xd9,0x0,0x0                                                                                    
0001a4   0f0b     ADDLW     0xb                                                                                             
0001a6   6ee6     MOVWF     0xe6,0x0                                                                                        
0001a8   0e00     MOVLW     0x0                                                                                             
0001aa   20da     ADDWFC    0xda,0x0,0x0                                                                                    
0001ac   6ee6     MOVWF     0xe6,0x0                                                                                        
0001ae   0e11     MOVLW     0x11                                                                                            
0001b0   cfdb     MOVFF     0xfdb,0xfe6                                                                                     
0001b2   ffe6                                                                                                               
0001b4   0e07     MOVLW     0x7                                                                                             
0001b6   cfdb     MOVFF     0xfdb,0xfe6                                                                                     
0001b8   ffe6                                                                                                               
0001ba   0e08     MOVLW     0x8                                                                                             
0001bc   cfdb     MOVFF     0xfdb,0xfe6                                                                                     
0001be   ffe6                                                                                                               
0001c0   d84c     RCALL     0x25a                                                                                           
0001c2   6e02     MOVWF     0x2,0x0                                                                                         
0001c4   0e06     MOVLW     0x6                                                                                             
0001c6   5ee1     SUBWF     0xe1,0x1,0x0                                                                                    
0001c8   5002     MOVF      0x2,0x0,0x0                                                                                     
0001ca   8a8a     BSF       0x8a,0x5,0x0   		TAA = 1;                                                                       D:\Helicopter Project\source\Accelerometer\Accelerometer.c
                                                                                                                            D:\Helicopter Project\source\Accelerometer\Accelerometer.c
0001cc   0e13     MOVLW     0x13           		byte_out.byte[0] = TAA_Z_AXIS;                                                 D:\Helicopter Project\source\Accelerometer\Accelerometer.c
0001ce   6ef3     MOVWF     0xf3,0x0                                                                                        
0001d0   0e07     MOVLW     0x7                                                                                             
0001d2   cff3     MOVFF     0xff3,0xfdb                                                                                     
0001d4   ffdb                                                                                                               
0001d6   9a8a     BCF       0x8a,0x5,0x0   		TAA = 0;                                                                       D:\Helicopter Project\source\Accelerometer\Accelerometer.c
0001d8   0e12     MOVLW     0x12           		ShiftIO(byte_out, out_bits, &Y_axis, in_bits);                                 D:\Helicopter Project\source\Accelerometer\Accelerometer.c
0001da   cfdb     MOVFF     0xfdb,0xfe6                                                                                     
0001dc   ffe6                                                                                                               
0001de   50d9     MOVF      0xd9,0x0,0x0                                                                                    
0001e0   0f0d     ADDLW     0xd                                                                                             
0001e2   6ee6     MOVWF     0xe6,0x0                                                                                        
0001e4   0e00     MOVLW     0x0                                                                                             
0001e6   20da     ADDWFC    0xda,0x0,0x0                                                                                    
0001e8   6ee6     MOVWF     0xe6,0x0                                                                                        
0001ea   0e11     MOVLW     0x11                                                                                            
0001ec   cfdb     MOVFF     0xfdb,0xfe6                                                                                     
0001ee   ffe6                                                                                                               
0001f0   0e07     MOVLW     0x7                                                                                             
0001f2   cfdb     MOVFF     0xfdb,0xfe6                                                                                     
0001f4   ffe6                                                                                                               
0001f6   0e08     MOVLW     0x8                                                                                             
0001f8   cfdb     MOVFF     0xfdb,0xfe6                                                                                     
0001fa   ffe6                                                                                                               
0001fc   d82e     RCALL     0x25a                                                                                           
0001fe   6e02     MOVWF     0x2,0x0                                                                                         
000200   0e06     MOVLW     0x6                                                                                             
000202   5ee1     SUBWF     0xe1,0x1,0x0                                                                                    
000204   5002     MOVF      0x2,0x0,0x0                                                                                     
000206   8a8a     BSF       0x8a,0x5,0x0   		TAA = 1;                                                                       D:\Helicopter Project\source\Accelerometer\Accelerometer.c
                                           		                                                                               D:\Helicopter Project\source\Accelerometer\Accelerometer.c
000208   0e0b     MOVLW     0xb            		byte_out.byte[0] = TAA_Y_AXIS;                                                 D:\Helicopter Project\source\Accelerometer\Accelerometer.c
00020a   6ef3     MOVWF     0xf3,0x0                                                                                        
00020c   0e07     MOVLW     0x7                                                                                             
00020e   cff3     MOVFF     0xff3,0xfdb                                                                                     
000210   ffdb                                                                                                               
000212   9a8a     BCF       0x8a,0x5,0x0   		TAA = 0;                                                                       D:\Helicopter Project\source\Accelerometer\Accelerometer.c
000214   0e12     MOVLW     0x12           		ShiftIO(byte_out, out_bits, &Z_axis, in_bits);                                 D:\Helicopter Project\source\Accelerometer\Accelerometer.c
000216   cfdb     MOVFF     0xfdb,0xfe6                                                                                     
000218   ffe6                                                                                                               
00021a   50d9     MOVF      0xd9,0x0,0x0                                                                                    
00021c   0f0f     ADDLW     0xf                                                                                             
00021e   6ee6     MOVWF     0xe6,0x0                                                                                        
000220   0e00     MOVLW     0x0                                                                                             
000222   20da     ADDWFC    0xda,0x0,0x0                                                                                    
000224   6ee6     MOVWF     0xe6,0x0                                                                                        
000226   0e11     MOVLW     0x11                                                                                            
000228   cfdb     MOVFF     0xfdb,0xfe6                                                                                     
00022a   ffe6                                                                                                               
00022c   0e07     MOVLW     0x7                                                                                             
00022e   cfdb     MOVFF     0xfdb,0xfe6                                                                                     
000230   ffe6                                                                                                               
000232   0e08     MOVLW     0x8                                                                                             
000234   cfdb     MOVFF     0xfdb,0xfe6                                                                                     
000236   ffe6                                                                                                               
000238   d810     RCALL     0x25a                                                                                           
00023a   6e02     MOVWF     0x2,0x0                                                                                         
00023c   0e06     MOVLW     0x6                                                                                             
00023e   5ee1     SUBWF     0xe1,0x1,0x0                                                                                    
000240   5002     MOVF      0x2,0x0,0x0                                                                                     
000242   8a8a     BSF       0x8a,0x5,0x0   		TAA = 1;                                                                       D:\Helicopter Project\source\Accelerometer\Accelerometer.c
                                           		                                                                               D:\Helicopter Project\source\Accelerometer\Accelerometer.c
                                           //                                                                               D:\Helicopter Project\source\Accelerometer\Accelerometer.c
                                           //		Delay10KTCYx(200);                                                           D:\Helicopter Project\source\Accelerometer\Accelerometer.c
                                           	}                                                                               D:\Helicopter Project\source\Accelerometer\Accelerometer.c
000244   d795     BRA       0x170          	while(1);                                                                       D:\Helicopter Project\source\Accelerometer\Accelerometer.c
                                                                                                                            D:\Helicopter Project\source\Accelerometer\Accelerometer.c
000246   0e15     MOVLW     0x15           }                                                                                D:\Helicopter Project\source\Accelerometer\Accelerometer.c
000248   5ce1     SUBWF     0xe1,0x0,0x0                                                                                    
00024a   e202     BC        0x250                                                                                           
00024c   6ae1     CLRF      0xe1,0x0                                                                                        
00024e   52e5     MOVF      0xe5,0x1,0x0                                                                                    
000250   6ee1     MOVWF     0xe1,0x0                                                                                        
000252   52e5     MOVF      0xe5,0x1,0x0                                                                                    
000254   cfe7     MOVFF     0xfe7,0xfd9                                                                                     
000256   ffd9                                                                                                               
000258   0012     RETURN    0x0                                                                                             
                                           /*****************************  End of Main code *********************/          D:\Helicopter Project\source\Accelerometer\Accelerometer.c
                                                                                                                            D:\Helicopter Project\source\Accelerometer\Accelerometer.c
                                           /*************************** Function Definitions ********************/          D:\Helicopter Project\source\Accelerometer\Accelerometer.c
                                           /*                                                                               D:\Helicopter Project\source\Accelerometer\Accelerometer.c
                                           Function:	ShiftIO                                                                D:\Helicopter Project\source\Accelerometer\Accelerometer.c
                                           Description: This function will serially communicate to a Tri-axis accelerometer and magnetic  D:\Helicopter Project\source\Accelerometer\Accelerometer.c
                                           			 compass module using a form of SPI.                                          D:\Helicopter Project\source\Accelerometer\Accelerometer.c
                                           			 The byte_out variable is of a union type and can contain up to 2 bytes       D:\Helicopter Project\source\Accelerometer\Accelerometer.c
                                           			 The byte_in variable is also of a union type can can return up to 2 bytes    D:\Helicopter Project\source\Accelerometer\Accelerometer.c
                                           			 out_bits and in_bits contain the number of bits in each WORD variable that is  D:\Helicopter Project\source\Accelerometer\Accelerometer.c
                                           			 going to be sent out.                                                        D:\Helicopter Project\source\Accelerometer\Accelerometer.c
                                           			 Bytes are sent out LSB first                                                 D:\Helicopter Project\source\Accelerometer\Accelerometer.c
                                                                                                                            D:\Helicopter Project\source\Accelerometer\Accelerometer.c
                                           */                                                                               D:\Helicopter Project\source\Accelerometer\Accelerometer.c
00025a   cfd9     MOVFF     0xfd9,0xfe6    char ShiftIO(WORD byte_out, char out_bits, WORD *byte_in, char in_bits)          D:\Helicopter Project\source\Accelerometer\Accelerometer.c
00025c   ffe6                                                                                                               
00025e   cfe1     MOVFF     0xfe1,0xfd9                                                                                     
000260   ffd9                                                                                                               
                                           {                                                                                D:\Helicopter Project\source\Accelerometer\Accelerometer.c
000262   9c93     BCF       0x93,0x6,0x0   	CLK_DIR = 0;	// Set the direction of the clock line to be an output             D:\Helicopter Project\source\Accelerometer\Accelerometer.c
000264   9e93     BCF       0x93,0x7,0x0   	DIO_DIR = 0;	// SET TO OUTPUT                                                   D:\Helicopter Project\source\Accelerometer\Accelerometer.c
000266   9a93     BCF       0x93,0x5,0x0   	TAA_DIR = 0;                                                                    D:\Helicopter Project\source\Accelerometer\Accelerometer.c
                                           	                                                                                D:\Helicopter Project\source\Accelerometer\Accelerometer.c
                                           	do                                                                              D:\Helicopter Project\source\Accelerometer\Accelerometer.c
                                           	{                                                                               D:\Helicopter Project\source\Accelerometer\Accelerometer.c
000268   9c8a     BCF       0x8a,0x6,0x0   		CLK = 0;					// clock line goes low                                            D:\Helicopter Project\source\Accelerometer\Accelerometer.c
00026a   0efd     MOVLW     0xfd           		if(byte_out.byte[0] & 0x01)	// mask off the LSB and transmit                   D:\Helicopter Project\source\Accelerometer\Accelerometer.c
00026c   a0db     BTFSS     0xdb,0x0,0x0                                                                                    
00026e   d002     BRA       0x274                                                                                           
                                           		{                                                                              D:\Helicopter Project\source\Accelerometer\Accelerometer.c
000270   8e8a     BSF       0x8a,0x7,0x0   			DIO_SEND = 1;                                                                 D:\Helicopter Project\source\Accelerometer\Accelerometer.c
                                           		}                                                                              D:\Helicopter Project\source\Accelerometer\Accelerometer.c
000272   d001     BRA       0x276          		else                                                                           D:\Helicopter Project\source\Accelerometer\Accelerometer.c
                                           		{                                                                              D:\Helicopter Project\source\Accelerometer\Accelerometer.c
000274   9e8a     BCF       0x8a,0x7,0x0   			DIO_SEND = 0;                                                                 D:\Helicopter Project\source\Accelerometer\Accelerometer.c
                                           		}                                                                              D:\Helicopter Project\source\Accelerometer\Accelerometer.c
000276   0000     NOP                      		Nop();                                                                         D:\Helicopter Project\source\Accelerometer\Accelerometer.c
000278   8c8a     BSF       0x8a,0x6,0x0   		CLK = 1;					// data is sent on a positive going pulse                         D:\Helicopter Project\source\Accelerometer\Accelerometer.c
00027a   0efd     MOVLW     0xfd           		byte_out.D_byte = byte_out.D_byte >> 1;                                        D:\Helicopter Project\source\Accelerometer\Accelerometer.c
00027c   cfdb     MOVFF     0xfdb,0x2                                                                                       
00027e   f002                                                                                                               
000280   0efe     MOVLW     0xfe                                                                                            
000282   cfdb     MOVFF     0xfdb,0x3                                                                                       
000284   f003                                                                                                               
000286   90d8     BCF       0xd8,0x0,0x0                                                                                    
000288   3203     RRCF      0x3,0x1,0x0                                                                                     
00028a   3202     RRCF      0x2,0x1,0x0                                                                                     
00028c   0efd     MOVLW     0xfd                                                                                            
00028e   c002     MOVFF     0x2,0xfdb                                                                                       
000290   ffdb                                                                                                               
000292   0efe     MOVLW     0xfe                                                                                            
000294   c003     MOVFF     0x3,0xfdb                                                                                       
000296   ffdb                                                                                                               
000298   0efc     MOVLW     0xfc           		out_bits--;					// ensure that we are sending the correct number of bits       D:\Helicopter Project\source\Accelerometer\Accelerometer.c
00029a   06db     DECF      0xdb,0x1,0x0                                                                                    
                                           	}                                                                               D:\Helicopter Project\source\Accelerometer\Accelerometer.c
00029c   0efc     MOVLW     0xfc           	while(out_bits);                                                                D:\Helicopter Project\source\Accelerometer\Accelerometer.c
00029e   50db     MOVF      0xdb,0x0,0x0                                                                                    
0002a0   e1e3     BNZ       0x268                                                                                           
                                                                                                                            D:\Helicopter Project\source\Accelerometer\Accelerometer.c
0002a2   8e93     BSF       0x93,0x7,0x0   	DIO_DIR = 1;	// SET TO INPUT FOR RECEIVING DATA                                 D:\Helicopter Project\source\Accelerometer\Accelerometer.c
                                                                                                                            D:\Helicopter Project\source\Accelerometer\Accelerometer.c
                                           	do                                                                              D:\Helicopter Project\source\Accelerometer\Accelerometer.c
                                           	{                                                                               D:\Helicopter Project\source\Accelerometer\Accelerometer.c
0002a4   9c8a     BCF       0x8a,0x6,0x0   		CLK = 0;                                                                       D:\Helicopter Project\source\Accelerometer\Accelerometer.c
0002a6   ae81     BTFSS     0x81,0x7,0x0   		if(DIO_GET)// WHAT VALUE ARE WE RECEIVING                                      D:\Helicopter Project\source\Accelerometer\Accelerometer.c
0002a8   d009     BRA       0x2bc                                                                                           
                                           		{                                                                              D:\Helicopter Project\source\Accelerometer\Accelerometer.c
0002aa   0efa     MOVLW     0xfa           			byte_in->D_byte |= 0x0001;                                                    D:\Helicopter Project\source\Accelerometer\Accelerometer.c
0002ac   cfdb     MOVFF     0xfdb,0xfe9                                                                                     
0002ae   ffe9                                                                                                               
0002b0   0efb     MOVLW     0xfb                                                                                            
0002b2   cfdb     MOVFF     0xfdb,0xfea                                                                                     
0002b4   ffea                                                                                                               
0002b6   80ee     BSF       0xee,0x0,0x0                                                                                    
0002b8   52ed     MOVF      0xed,0x1,0x0                                                                                    
                                           		}                                                                              D:\Helicopter Project\source\Accelerometer\Accelerometer.c
0002ba   d008     BRA       0x2cc          		else                                                                           D:\Helicopter Project\source\Accelerometer\Accelerometer.c
                                           		{                                                                              D:\Helicopter Project\source\Accelerometer\Accelerometer.c
0002bc   0efa     MOVLW     0xfa           			byte_in->D_byte &= 0xFFFE;                                                    D:\Helicopter Project\source\Accelerometer\Accelerometer.c
0002be   cfdb     MOVFF     0xfdb,0xfe9                                                                                     
0002c0   ffe9                                                                                                               
0002c2   0efb     MOVLW     0xfb                                                                                            
0002c4   cfdb     MOVFF     0xfdb,0xfea                                                                                     
0002c6   ffea                                                                                                               
0002c8   90ee     BCF       0xee,0x0,0x0                                                                                    
0002ca   52ed     MOVF      0xed,0x1,0x0                                                                                    
                                           		}                                                                              D:\Helicopter Project\source\Accelerometer\Accelerometer.c
0002cc   0ef9     MOVLW     0xf9           		in_bits--;                                                                     D:\Helicopter Project\source\Accelerometer\Accelerometer.c
0002ce   06db     DECF      0xdb,0x1,0x0                                                                                    
0002d0   0ef9     MOVLW     0xf9           		if(in_bits)                                                                    D:\Helicopter Project\source\Accelerometer\Accelerometer.c
0002d2   50db     MOVF      0xdb,0x0,0x0                                                                                    
0002d4   e017     BZ        0x304                                                                                           
                                           		{                                                                              D:\Helicopter Project\source\Accelerometer\Accelerometer.c
0002d6   0efa     MOVLW     0xfa           			byte_in->D_byte = byte_in->D_byte << 1;	// receive data and shift to the right D:\Helicopter Project\source\Accelerometer\Accelerometer.c
0002d8   cfdb     MOVFF     0xfdb,0xfe9                                                                                     
0002da   ffe9                                                                                                               
0002dc   0efb     MOVLW     0xfb                                                                                            
0002de   cfdb     MOVFF     0xfdb,0xfea                                                                                     
0002e0   ffea                                                                                                               
0002e2   cfee     MOVFF     0xfee,0x2                                                                                       
0002e4   f002                                                                                                               
0002e6   cfef     MOVFF     0xfef,0x3                                                                                       
0002e8   f003                                                                                                               
0002ea   90d8     BCF       0xd8,0x0,0x0                                                                                    
0002ec   3602     RLCF      0x2,0x1,0x0                                                                                     
0002ee   3603     RLCF      0x3,0x1,0x0                                                                                     
0002f0   0efa     MOVLW     0xfa                                                                                            
0002f2   cfdb     MOVFF     0xfdb,0xfe9                                                                                     
0002f4   ffe9                                                                                                               
0002f6   0efb     MOVLW     0xfb                                                                                            
0002f8   cfdb     MOVFF     0xfdb,0xfea                                                                                     
0002fa   ffea                                                                                                               
0002fc   c002     MOVFF     0x2,0xfee                                                                                       
0002fe   ffee                                                                                                               
000300   c003     MOVFF     0x3,0xfed                                                                                       
000302   ffed                                                                                                               
                                           		}                                                                              D:\Helicopter Project\source\Accelerometer\Accelerometer.c
000304   8c8a     BSF       0x8a,0x6,0x0   		CLK = 1;                                                                       D:\Helicopter Project\source\Accelerometer\Accelerometer.c
000306   0000     NOP                      		Nop();                                                                         D:\Helicopter Project\source\Accelerometer\Accelerometer.c
                                           	}                                                                               D:\Helicopter Project\source\Accelerometer\Accelerometer.c
000308   0ef9     MOVLW     0xf9           	while(in_bits);                                                                 D:\Helicopter Project\source\Accelerometer\Accelerometer.c
00030a   50db     MOVF      0xdb,0x0,0x0                                                                                    
00030c   e1cb     BNZ       0x2a4                                                                                           
00030e   0e00     MOVLW     0x0            	return 0;                                                                       D:\Helicopter Project\source\Accelerometer\Accelerometer.c
000310   d000     BRA       0x312                                                                                           
000312   52e5     MOVF      0xe5,0x1,0x0   }                                                                                D:\Helicopter Project\source\Accelerometer\Accelerometer.c
000314   cfe7     MOVFF     0xfe7,0xfd9                                                                                     
000316   ffd9                                                                                                               
000318   0012     RETURN    0x0                                                                                             
                                                                                                                            D:\Helicopter Project\source\Accelerometer\Accelerometer.c
                                                                                                                            D:\Helicopter Project\source\Accelerometer\Accelerometer.c
                                           /* $Id: openxlcd.c,v 1.1 2003/12/09 22:52:09 GrosbaJ Exp $ */                    C:\MCC18\src\traditional\pmc\XLCD\openxlcd.c
                                           #include <p18cxxx.h>                                                             C:\MCC18\src\traditional\pmc\XLCD\openxlcd.c
                                           #include <xlcd.h>                                                                C:\MCC18\src\traditional\pmc\XLCD\openxlcd.c
                                                                                                                            C:\MCC18\src\traditional\pmc\XLCD\openxlcd.c
                                           /********************************************************************            C:\MCC18\src\traditional\pmc\XLCD\openxlcd.c
                                           *       Function Name:  OpenXLCD                                    *            C:\MCC18\src\traditional\pmc\XLCD\openxlcd.c
                                           *       Return Value:   void                                        *            C:\MCC18\src\traditional\pmc\XLCD\openxlcd.c
                                           *       Parameters:     lcdtype: sets the type of LCD (lines)       *            C:\MCC18\src\traditional\pmc\XLCD\openxlcd.c
                                           *       Description:    This routine configures the LCD. Based on   *            C:\MCC18\src\traditional\pmc\XLCD\openxlcd.c
                                           *                       the Hitachi HD44780 LCD controller. The     *            C:\MCC18\src\traditional\pmc\XLCD\openxlcd.c
                                           *                       routine will configure the I/O pins of the  *            C:\MCC18\src\traditional\pmc\XLCD\openxlcd.c
                                           *                       microcontroller, setup the LCD for 4- or    *            C:\MCC18\src\traditional\pmc\XLCD\openxlcd.c
                                           *                       8-bit mode and clear the display. The user  *            C:\MCC18\src\traditional\pmc\XLCD\openxlcd.c
                                           *                       must provide three delay routines:          *            C:\MCC18\src\traditional\pmc\XLCD\openxlcd.c
                                           *                       DelayFor18TCY() provides a 18 Tcy delay     *            C:\MCC18\src\traditional\pmc\XLCD\openxlcd.c
                                           *                       DelayPORXLCD() provides at least 15ms delay *            C:\MCC18\src\traditional\pmc\XLCD\openxlcd.c
                                           *                       DelayXLCD() provides at least 5ms delay     *            C:\MCC18\src\traditional\pmc\XLCD\openxlcd.c
                                           ********************************************************************/            C:\MCC18\src\traditional\pmc\XLCD\openxlcd.c
00031a   cfd9     MOVFF     0xfd9,0xfe6    void OpenXLCD(unsigned char lcdtype)                                             C:\MCC18\src\traditional\pmc\XLCD\openxlcd.c
00031c   ffe6                                                                                                               
00031e   cfe1     MOVFF     0xfe1,0xfd9                                                                                     
000320   ffd9                                                                                                               
                                           {                                                                                C:\MCC18\src\traditional\pmc\XLCD\openxlcd.c
                                                   // The data bits must be either a 8-bit port or the upper or             C:\MCC18\src\traditional\pmc\XLCD\openxlcd.c
                                                   // lower 4-bits of a port. These pins are made into inputs               C:\MCC18\src\traditional\pmc\XLCD\openxlcd.c
                                           #ifdef BIT8                             // 8-bit mode, use whole port            C:\MCC18\src\traditional\pmc\XLCD\openxlcd.c
                                                   DATA_PORT = 0;                                                           C:\MCC18\src\traditional\pmc\XLCD\openxlcd.c
                                                   TRIS_DATA_PORT = 0xff;                                                   C:\MCC18\src\traditional\pmc\XLCD\openxlcd.c
                                           #else                                   // 4-bit mode                            C:\MCC18\src\traditional\pmc\XLCD\openxlcd.c
                                           #ifdef UPPER                            // Upper 4-bits of the port              C:\MCC18\src\traditional\pmc\XLCD\openxlcd.c
                                                   DATA_PORT &= 0x0f;                                                       C:\MCC18\src\traditional\pmc\XLCD\openxlcd.c
                                                   TRIS_DATA_PORT |= 0xf0;                                                  C:\MCC18\src\traditional\pmc\XLCD\openxlcd.c
                                           #else                                   // Lower 4-bits of the port              C:\MCC18\src\traditional\pmc\XLCD\openxlcd.c
000322   0ef0     MOVLW     0xf0                   DATA_PORT &= 0xf0;                                                       C:\MCC18\src\traditional\pmc\XLCD\openxlcd.c
000324   1681     ANDWF     0x81,0x1,0x0                                                                                    
000326   0e0f     MOVLW     0xf                    TRIS_DATA_PORT |= 0x0f;                                                  C:\MCC18\src\traditional\pmc\XLCD\openxlcd.c
000328   1293     IORWF     0x93,0x1,0x0                                                                                    
                                           #endif                                                                           C:\MCC18\src\traditional\pmc\XLCD\openxlcd.c
                                           #endif                                                                           C:\MCC18\src\traditional\pmc\XLCD\openxlcd.c
00032a   9a93     BCF       0x93,0x5,0x0           TRIS_RW = 0;                    // All control signals made outputs      C:\MCC18\src\traditional\pmc\XLCD\openxlcd.c
00032c   9893     BCF       0x93,0x4,0x0           TRIS_RS = 0;                                                             C:\MCC18\src\traditional\pmc\XLCD\openxlcd.c
00032e   9892     BCF       0x92,0x4,0x0           TRIS_E = 0;                                                              C:\MCC18\src\traditional\pmc\XLCD\openxlcd.c
000330   9a81     BCF       0x81,0x5,0x0           RW_PIN = 0;                     // R/W pin made low                      C:\MCC18\src\traditional\pmc\XLCD\openxlcd.c
000332   9881     BCF       0x81,0x4,0x0           RS_PIN = 0;                     // Register select pin made low          C:\MCC18\src\traditional\pmc\XLCD\openxlcd.c
000334   9880     BCF       0x80,0x4,0x0           E_PIN = 0;                      // Clock pin made low                    C:\MCC18\src\traditional\pmc\XLCD\openxlcd.c
                                           	                                                                                C:\MCC18\src\traditional\pmc\XLCD\openxlcd.c
                                                   // Delay for 15ms to allow for LCD Power on reset                        C:\MCC18\src\traditional\pmc\XLCD\openxlcd.c
000336   ecfa     CALL      0x5f4,0x0              DelayPORXLCD();                                                          C:\MCC18\src\traditional\pmc\XLCD\openxlcd.c
000338   f002                                                                                                               
                                                                                                                            C:\MCC18\src\traditional\pmc\XLCD\openxlcd.c
                                                   // Setup interface to LCD                                                C:\MCC18\src\traditional\pmc\XLCD\openxlcd.c
                                           #ifdef BIT8                             // 8-bit mode interface                  C:\MCC18\src\traditional\pmc\XLCD\openxlcd.c
                                                   TRIS_DATA_PORT = 0;             // Data port output                      C:\MCC18\src\traditional\pmc\XLCD\openxlcd.c
                                                   DATA_PORT = 0b00110000;         // Function set cmd(8-bit interface)     C:\MCC18\src\traditional\pmc\XLCD\openxlcd.c
                                           #else                                   // 4-bit mode interface                  C:\MCC18\src\traditional\pmc\XLCD\openxlcd.c
                                           #ifdef UPPER                            // Upper nibble interface                C:\MCC18\src\traditional\pmc\XLCD\openxlcd.c
                                                   TRIS_DATA_PORT &= 0x0f;                                                  C:\MCC18\src\traditional\pmc\XLCD\openxlcd.c
                                                   DATA_PORT &= 0x0f;                                                       C:\MCC18\src\traditional\pmc\XLCD\openxlcd.c
                                                   DATA_PORT |= 0b00110000;        // Function set cmd(4-bit interface)     C:\MCC18\src\traditional\pmc\XLCD\openxlcd.c
                                           #else                                   // Lower nibble interface                C:\MCC18\src\traditional\pmc\XLCD\openxlcd.c
00033a   0ef0     MOVLW     0xf0                   TRIS_DATA_PORT &= 0xf0;                                                  C:\MCC18\src\traditional\pmc\XLCD\openxlcd.c
00033c   1693     ANDWF     0x93,0x1,0x0                                                                                    
00033e   1681     ANDWF     0x81,0x1,0x0           DATA_PORT &= 0xf0;                                                       C:\MCC18\src\traditional\pmc\XLCD\openxlcd.c
000340   0e03     MOVLW     0x3                    DATA_PORT |= 0b00000011;        // Function set cmd(4-bit interface)     C:\MCC18\src\traditional\pmc\XLCD\openxlcd.c
000342   1281     IORWF     0x81,0x1,0x0                                                                                    
                                           #endif                                                                           C:\MCC18\src\traditional\pmc\XLCD\openxlcd.c
                                           #endif                                                                           C:\MCC18\src\traditional\pmc\XLCD\openxlcd.c
000344   8880     BSF       0x80,0x4,0x0           E_PIN = 1;                      // Clock the cmd in                      C:\MCC18\src\traditional\pmc\XLCD\openxlcd.c
000346   eceb     CALL      0x5d6,0x0      		DelayFor18TCY();                                                               C:\MCC18\src\traditional\pmc\XLCD\openxlcd.c
000348   f002                                                                                                               
00034a   9880     BCF       0x80,0x4,0x0           E_PIN = 0;                                                               C:\MCC18\src\traditional\pmc\XLCD\openxlcd.c
                                                                                                                            C:\MCC18\src\traditional\pmc\XLCD\openxlcd.c
                                                   // Delay for at least 4.1ms                                              C:\MCC18\src\traditional\pmc\XLCD\openxlcd.c
00034c   ec00     CALL      0x600,0x0              DelayXLCD();                                                             C:\MCC18\src\traditional\pmc\XLCD\openxlcd.c
00034e   f003                                                                                                               
                                                                                                                            C:\MCC18\src\traditional\pmc\XLCD\openxlcd.c
                                                   // Setup interface to LCD                                                C:\MCC18\src\traditional\pmc\XLCD\openxlcd.c
                                           #ifdef BIT8                             // 8-bit interface                       C:\MCC18\src\traditional\pmc\XLCD\openxlcd.c
                                                   DATA_PORT = 0b00110000;         // Function set cmd(8-bit interface)     C:\MCC18\src\traditional\pmc\XLCD\openxlcd.c
                                           #else                                   // 4-bit interface                       C:\MCC18\src\traditional\pmc\XLCD\openxlcd.c
                                           #ifdef UPPER                            // Upper nibble interface                C:\MCC18\src\traditional\pmc\XLCD\openxlcd.c
                                                   DATA_PORT &= 0x0f;              // Function set cmd(4-bit interface)     C:\MCC18\src\traditional\pmc\XLCD\openxlcd.c
                                                   DATA_PORT |= 0b00110000;                                                 C:\MCC18\src\traditional\pmc\XLCD\openxlcd.c
                                           #else                                   // Lower nibble interface                C:\MCC18\src\traditional\pmc\XLCD\openxlcd.c
000350   0ef0     MOVLW     0xf0                   DATA_PORT &= 0xf0;              // Function set cmd(4-bit interface)     C:\MCC18\src\traditional\pmc\XLCD\openxlcd.c
000352   1681     ANDWF     0x81,0x1,0x0                                                                                    
000354   0e03     MOVLW     0x3                    DATA_PORT |= 0b00000011;                                                 C:\MCC18\src\traditional\pmc\XLCD\openxlcd.c
000356   1281     IORWF     0x81,0x1,0x0                                                                                    
                                           #endif                                                                           C:\MCC18\src\traditional\pmc\XLCD\openxlcd.c
                                           #endif                                                                           C:\MCC18\src\traditional\pmc\XLCD\openxlcd.c
000358   8880     BSF       0x80,0x4,0x0           E_PIN = 1;                      // Clock the cmd in                      C:\MCC18\src\traditional\pmc\XLCD\openxlcd.c
00035a   eceb     CALL      0x5d6,0x0              DelayFor18TCY();                                                         C:\MCC18\src\traditional\pmc\XLCD\openxlcd.c
00035c   f002                                                                                                               
00035e   9880     BCF       0x80,0x4,0x0           E_PIN = 0;                                                               C:\MCC18\src\traditional\pmc\XLCD\openxlcd.c
                                           	                                                                                C:\MCC18\src\traditional\pmc\XLCD\openxlcd.c
                                                   // Delay for at least 100us                                              C:\MCC18\src\traditional\pmc\XLCD\openxlcd.c
000360   ec0b     CALL      0x616,0x0      		Delay100uXLCD();                                                               C:\MCC18\src\traditional\pmc\XLCD\openxlcd.c
000362   f003                                                                                                               
                                                                                                                            C:\MCC18\src\traditional\pmc\XLCD\openxlcd.c
                                                   // Setup interface to LCD                                                C:\MCC18\src\traditional\pmc\XLCD\openxlcd.c
                                           #ifdef BIT8                             // 8-bit interface                       C:\MCC18\src\traditional\pmc\XLCD\openxlcd.c
                                                   DATA_PORT = 0b00110000;         // Function set cmd(8-bit interface)     C:\MCC18\src\traditional\pmc\XLCD\openxlcd.c
                                           #else                                   // 4-bit interface                       C:\MCC18\src\traditional\pmc\XLCD\openxlcd.c
                                           #ifdef UPPER                            // Upper nibble interface                C:\MCC18\src\traditional\pmc\XLCD\openxlcd.c
                                                   DATA_PORT &= 0x0f;              // Function set cmd(4-bit interface)     C:\MCC18\src\traditional\pmc\XLCD\openxlcd.c
                                                   DATA_PORT |= 0b00110000;                                                 C:\MCC18\src\traditional\pmc\XLCD\openxlcd.c
                                           #else                                   // Lower nibble interface                C:\MCC18\src\traditional\pmc\XLCD\openxlcd.c
000364   0ef0     MOVLW     0xf0                   DATA_PORT &= 0xf0;              // Function set cmd(4-bit interface)     C:\MCC18\src\traditional\pmc\XLCD\openxlcd.c
000366   1681     ANDWF     0x81,0x1,0x0                                                                                    
000368   8281     BSF       0x81,0x1,0x0           DATA_PORT |= 0b00000010;                                                 C:\MCC18\src\traditional\pmc\XLCD\openxlcd.c
                                           #endif                                                                           C:\MCC18\src\traditional\pmc\XLCD\openxlcd.c
                                           #endif                                                                           C:\MCC18\src\traditional\pmc\XLCD\openxlcd.c
00036a   8880     BSF       0x80,0x4,0x0           E_PIN = 1;                      // Clock cmd in                          C:\MCC18\src\traditional\pmc\XLCD\openxlcd.c
00036c   eceb     CALL      0x5d6,0x0              DelayFor18TCY();                                                         C:\MCC18\src\traditional\pmc\XLCD\openxlcd.c
00036e   f002                                                                                                               
000370   9880     BCF       0x80,0x4,0x0           E_PIN = 0;                                                               C:\MCC18\src\traditional\pmc\XLCD\openxlcd.c
                                                                                                                            C:\MCC18\src\traditional\pmc\XLCD\openxlcd.c
                                           #ifdef BIT8                             // 8-bit interface                       C:\MCC18\src\traditional\pmc\XLCD\openxlcd.c
                                                   TRIS_DATA_PORT = 0xff;          // Make data port input                  C:\MCC18\src\traditional\pmc\XLCD\openxlcd.c
                                           #else                                   // 4-bit interface                       C:\MCC18\src\traditional\pmc\XLCD\openxlcd.c
                                           #ifdef UPPER                            // Upper nibble interface                C:\MCC18\src\traditional\pmc\XLCD\openxlcd.c
                                                   TRIS_DATA_PORT |= 0xf0;         // Make data nibble input                C:\MCC18\src\traditional\pmc\XLCD\openxlcd.c
                                           #else                                   // Lower nibble interface                C:\MCC18\src\traditional\pmc\XLCD\openxlcd.c
000372   0e0f     MOVLW     0xf                    TRIS_DATA_PORT |= 0x0f;         // Make data nibble input                C:\MCC18\src\traditional\pmc\XLCD\openxlcd.c
000374   1293     IORWF     0x93,0x1,0x0                                                                                    
                                           #endif                                                                           C:\MCC18\src\traditional\pmc\XLCD\openxlcd.c
                                           #endif                                                                           C:\MCC18\src\traditional\pmc\XLCD\openxlcd.c
                                                                                                                            C:\MCC18\src\traditional\pmc\XLCD\openxlcd.c
                                                   // Set data interface width, # lines, font                               C:\MCC18\src\traditional\pmc\XLCD\openxlcd.c
000376   ec11     CALL      0x622,0x0              while(BusyXLCD());              // Wait if LCD busy                      C:\MCC18\src\traditional\pmc\XLCD\openxlcd.c
000378   f003                                                                                                               
00037a   0900     IORLW     0x0                                                                                             
00037c   e001     BZ        0x380                                                                                           
00037e   d7fb     BRA       0x376                                                                                           
000380   0efe     MOVLW     0xfe                   WriteCmdXLCD(lcdtype);          // Function set cmd                      C:\MCC18\src\traditional\pmc\XLCD\openxlcd.c
000382   cfdb     MOVFF     0xfdb,0xfe6                                                                                     
000384   ffe6                                                                                                               
000386   ec9d     CALL      0x53a,0x0                                                                                       
000388   f002                                                                                                               
00038a   52e5     MOVF      0xe5,0x1,0x0                                                                                    
                                           	                                                                                C:\MCC18\src\traditional\pmc\XLCD\openxlcd.c
                                                   // Turn the display on then off                                          C:\MCC18\src\traditional\pmc\XLCD\openxlcd.c
00038c   ec11     CALL      0x622,0x0              while(BusyXLCD());              // Wait if LCD busy                      C:\MCC18\src\traditional\pmc\XLCD\openxlcd.c
00038e   f003                                                                                                               
000390   0900     IORLW     0x0                                                                                             
000392   e001     BZ        0x396                                                                                           
000394   d7fb     BRA       0x38c                                                                                           
000396   0e28     MOVLW     0x28           		WriteCmdXLCD(0x28);                                                            C:\MCC18\src\traditional\pmc\XLCD\openxlcd.c
000398   6ee6     MOVWF     0xe6,0x0                                                                                        
00039a   ec9d     CALL      0x53a,0x0                                                                                       
00039c   f002                                                                                                               
00039e   52e5     MOVF      0xe5,0x1,0x0                                                                                    
                                           //        WriteCmdXLCD(DOFF&CURSOR_OFF&BLINK_OFF);        // Display OFF/Blink OFF C:\MCC18\src\traditional\pmc\XLCD\openxlcd.c
0003a0   ec11     CALL      0x622,0x0              while(BusyXLCD());              // Wait if LCD busy                      C:\MCC18\src\traditional\pmc\XLCD\openxlcd.c
0003a2   f003                                                                                                               
0003a4   0900     IORLW     0x0                                                                                             
0003a6   e001     BZ        0x3aa                                                                                           
0003a8   d7fb     BRA       0x3a0                                                                                           
                                           //        WriteCmdXLCD(DON&CURSOR_ON&BLINK_ON);           // Display ON/Blink ON C:\MCC18\src\traditional\pmc\XLCD\openxlcd.c
0003aa   0e0c     MOVLW     0xc            		WriteCmdXLCD(0x0C);                                                            C:\MCC18\src\traditional\pmc\XLCD\openxlcd.c
0003ac   6ee6     MOVWF     0xe6,0x0                                                                                        
0003ae   ec9d     CALL      0x53a,0x0                                                                                       
0003b0   f002                                                                                                               
0003b2   52e5     MOVF      0xe5,0x1,0x0                                                                                    
                                                   // Clear display                                                         C:\MCC18\src\traditional\pmc\XLCD\openxlcd.c
0003b4   ec11     CALL      0x622,0x0              while(BusyXLCD());                                                       C:\MCC18\src\traditional\pmc\XLCD\openxlcd.c
0003b6   f003                                                                                                               
0003b8   0900     IORLW     0x0                                                                                             
0003ba   e001     BZ        0x3be                                                                                           
0003bc   d7fb     BRA       0x3b4                                                                                           
0003be   0e06     MOVLW     0x6                    WriteCmdXLCD(0x06);                                                      C:\MCC18\src\traditional\pmc\XLCD\openxlcd.c
0003c0   6ee6     MOVWF     0xe6,0x0                                                                                        
0003c2   ec9d     CALL      0x53a,0x0                                                                                       
0003c4   f002                                                                                                               
0003c6   52e5     MOVF      0xe5,0x1,0x0                                                                                    
                                                                                                                            C:\MCC18\src\traditional\pmc\XLCD\openxlcd.c
0003c8   ec11     CALL      0x622,0x0              while(BusyXLCD());              // Wait if LCD busy                      C:\MCC18\src\traditional\pmc\XLCD\openxlcd.c
0003ca   f003                                                                                                               
0003cc   0900     IORLW     0x0                                                                                             
0003ce   e001     BZ        0x3d2                                                                                           
0003d0   d7fb     BRA       0x3c8                                                                                           
0003d2   0e01     MOVLW     0x1                    WriteCmdXLCD(0x01);             // Clear display                         C:\MCC18\src\traditional\pmc\XLCD\openxlcd.c
0003d4   6ee6     MOVWF     0xe6,0x0                                                                                        
0003d6   ec9d     CALL      0x53a,0x0                                                                                       
0003d8   f002                                                                                                               
0003da   52e5     MOVF      0xe5,0x1,0x0                                                                                    
                                                                                                                            C:\MCC18\src\traditional\pmc\XLCD\openxlcd.c
                                                   // Set entry mode inc, no shift                                          C:\MCC18\src\traditional\pmc\XLCD\openxlcd.c
                                           //        while(BusyXLCD());              // Wait if LCD busy                    C:\MCC18\src\traditional\pmc\XLCD\openxlcd.c
                                           //        WriteCmdXLCD(SHIFT_CUR_LEFT);   // Entry Mode                          C:\MCC18\src\traditional\pmc\XLCD\openxlcd.c
                                                                                                                            C:\MCC18\src\traditional\pmc\XLCD\openxlcd.c
                                                   // Set DD Ram address to 0                                               C:\MCC18\src\traditional\pmc\XLCD\openxlcd.c
0003dc   ec11     CALL      0x622,0x0              while(BusyXLCD());              // Wait if LCD busy                      C:\MCC18\src\traditional\pmc\XLCD\openxlcd.c
0003de   f003                                                                                                               
0003e0   0900     IORLW     0x0                                                                                             
0003e2   e001     BZ        0x3e6                                                                                           
0003e4   d7fb     BRA       0x3dc                                                                                           
0003e6   6ae6     CLRF      0xe6,0x0               SetDDRamAddr(0);                // Set Display data ram address to 0     C:\MCC18\src\traditional\pmc\XLCD\openxlcd.c
0003e8   ec4b     CALL      0x496,0x0                                                                                       
0003ea   f002                                                                                                               
0003ec   52e5     MOVF      0xe5,0x1,0x0                                                                                    
                                                                                                                            C:\MCC18\src\traditional\pmc\XLCD\openxlcd.c
0003ee   d000     BRA       0x3f0                  return;                                                                  C:\MCC18\src\traditional\pmc\XLCD\openxlcd.c
0003f0   52e5     MOVF      0xe5,0x1,0x0   }                                                                                C:\MCC18\src\traditional\pmc\XLCD\openxlcd.c
0003f2   cfe7     MOVFF     0xfe7,0xfd9                                                                                     
0003f4   ffd9                                                                                                               
0003f6   0012     RETURN    0x0                                                                                             
                                                                                                                            C:\MCC18\src\traditional\pmc\XLCD\openxlcd.c
                                           /* $Id: busyxlcd.c,v 1.1 2003/12/09 22:52:09 GrosbaJ Exp $ */                    C:\MCC18\src\traditional\pmc\XLCD\busyxlcd.c
                                           #include <p18cxxx.h>                                                             C:\MCC18\src\traditional\pmc\XLCD\busyxlcd.c
                                           #include <xlcd.h>                                                                C:\MCC18\src\traditional\pmc\XLCD\busyxlcd.c
                                                                                                                            C:\MCC18\src\traditional\pmc\XLCD\busyxlcd.c
                                           /********************************************************************            C:\MCC18\src\traditional\pmc\XLCD\busyxlcd.c
                                           *       Function Name:  BusyXLCD                                    *            C:\MCC18\src\traditional\pmc\XLCD\busyxlcd.c
                                           *       Return Value:   char: busy status of LCD controller         *            C:\MCC18\src\traditional\pmc\XLCD\busyxlcd.c
                                           *       Parameters:     void                                        *            C:\MCC18\src\traditional\pmc\XLCD\busyxlcd.c
                                           *       Description:    This routine reads the busy status of the   *            C:\MCC18\src\traditional\pmc\XLCD\busyxlcd.c
                                           *                       Hitachi HD44780 LCD controller.             *            C:\MCC18\src\traditional\pmc\XLCD\busyxlcd.c
                                           ********************************************************************/            C:\MCC18\src\traditional\pmc\XLCD\busyxlcd.c
                                           unsigned char BusyXLCD(void)                                                     C:\MCC18\src\traditional\pmc\XLCD\busyxlcd.c
                                           {                                                                                C:\MCC18\src\traditional\pmc\XLCD\busyxlcd.c
000622   8a81     BSF       0x81,0x5,0x0           RW_PIN = 1;                     // Set the control bits for read         C:\MCC18\src\traditional\pmc\XLCD\busyxlcd.c
000624   9881     BCF       0x81,0x4,0x0           RS_PIN = 0;                                                              C:\MCC18\src\traditional\pmc\XLCD\busyxlcd.c
000626   eceb     CALL      0x5d6,0x0              DelayFor18TCY();                                                         C:\MCC18\src\traditional\pmc\XLCD\busyxlcd.c
000628   f002                                                                                                               
00062a   8880     BSF       0x80,0x4,0x0           E_PIN = 1;                      // Clock in the command                  C:\MCC18\src\traditional\pmc\XLCD\busyxlcd.c
00062c   eceb     CALL      0x5d6,0x0              DelayFor18TCY();                                                         C:\MCC18\src\traditional\pmc\XLCD\busyxlcd.c
00062e   f002                                                                                                               
                                           #ifdef BIT8                             // 8-bit interface                       C:\MCC18\src\traditional\pmc\XLCD\busyxlcd.c
                                                   if(DATA_PORT&0x80)                      // Read bit 7 (busy bit)         C:\MCC18\src\traditional\pmc\XLCD\busyxlcd.c
                                                   {                               // If high                               C:\MCC18\src\traditional\pmc\XLCD\busyxlcd.c
                                                           E_PIN = 0;              // Reset clock line                      C:\MCC18\src\traditional\pmc\XLCD\busyxlcd.c
                                                           RW_PIN = 0;             // Reset control line                    C:\MCC18\src\traditional\pmc\XLCD\busyxlcd.c
                                                           return 1;               // Return TRUE                           C:\MCC18\src\traditional\pmc\XLCD\busyxlcd.c
                                                   }                                                                        C:\MCC18\src\traditional\pmc\XLCD\busyxlcd.c
                                                   else                            // Bit 7 low                             C:\MCC18\src\traditional\pmc\XLCD\busyxlcd.c
                                                   {                                                                        C:\MCC18\src\traditional\pmc\XLCD\busyxlcd.c
                                                           E_PIN = 0;              // Reset clock line                      C:\MCC18\src\traditional\pmc\XLCD\busyxlcd.c
                                                           RW_PIN = 0;             // Reset control line                    C:\MCC18\src\traditional\pmc\XLCD\busyxlcd.c
                                                           return 0;               // Return FALSE                          C:\MCC18\src\traditional\pmc\XLCD\busyxlcd.c
                                                   }                                                                        C:\MCC18\src\traditional\pmc\XLCD\busyxlcd.c
                                           #else                                   // 4-bit interface                       C:\MCC18\src\traditional\pmc\XLCD\busyxlcd.c
                                           #ifdef UPPER                            // Upper nibble interface                C:\MCC18\src\traditional\pmc\XLCD\busyxlcd.c
                                                   if(DATA_PORT&0x80)                                                       C:\MCC18\src\traditional\pmc\XLCD\busyxlcd.c
                                           #else                                   // Lower nibble interface                C:\MCC18\src\traditional\pmc\XLCD\busyxlcd.c
000630   a681     BTFSS     0x81,0x3,0x0           if(DATA_PORT&0x08)				// Check RB.5                                      C:\MCC18\src\traditional\pmc\XLCD\busyxlcd.c
000632   d00b     BRA       0x64a                                                                                           
                                           #endif                                                                           C:\MCC18\src\traditional\pmc\XLCD\busyxlcd.c
                                                   {                                                                        C:\MCC18\src\traditional\pmc\XLCD\busyxlcd.c
000634   9880     BCF       0x80,0x4,0x0                   E_PIN = 0;              // Reset clock line                      C:\MCC18\src\traditional\pmc\XLCD\busyxlcd.c
000636   eceb     CALL      0x5d6,0x0                      DelayFor18TCY();                                                 C:\MCC18\src\traditional\pmc\XLCD\busyxlcd.c
000638   f002                                                                                                               
00063a   8880     BSF       0x80,0x4,0x0                   E_PIN = 1;              // Clock out other nibble                C:\MCC18\src\traditional\pmc\XLCD\busyxlcd.c
00063c   eceb     CALL      0x5d6,0x0                      DelayFor18TCY();                                                 C:\MCC18\src\traditional\pmc\XLCD\busyxlcd.c
00063e   f002                                                                                                               
000640   9880     BCF       0x80,0x4,0x0                   E_PIN = 0;                                                       C:\MCC18\src\traditional\pmc\XLCD\busyxlcd.c
000642   9a93     BCF       0x93,0x5,0x0                   TRIS_RW = 0;             // Reset control line                   C:\MCC18\src\traditional\pmc\XLCD\busyxlcd.c
000644   0e01     MOVLW     0x1                            return 1;               // Return TRUE                           C:\MCC18\src\traditional\pmc\XLCD\busyxlcd.c
000646   d00b     BRA       0x65e                                                                                           
                                                   }                                                                        C:\MCC18\src\traditional\pmc\XLCD\busyxlcd.c
000648   d00a     BRA       0x65e                  else                            // Busy bit is low                       C:\MCC18\src\traditional\pmc\XLCD\busyxlcd.c
                                                   {                                                                        C:\MCC18\src\traditional\pmc\XLCD\busyxlcd.c
00064a   9880     BCF       0x80,0x4,0x0                   E_PIN = 0;              // Reset clock line                      C:\MCC18\src\traditional\pmc\XLCD\busyxlcd.c
00064c   eceb     CALL      0x5d6,0x0                      DelayFor18TCY();                                                 C:\MCC18\src\traditional\pmc\XLCD\busyxlcd.c
00064e   f002                                                                                                               
000650   8880     BSF       0x80,0x4,0x0                   E_PIN = 1;              // Clock out other nibble                C:\MCC18\src\traditional\pmc\XLCD\busyxlcd.c
000652   eceb     CALL      0x5d6,0x0                      DelayFor18TCY();                                                 C:\MCC18\src\traditional\pmc\XLCD\busyxlcd.c
000654   f002                                                                                                               
000656   9880     BCF       0x80,0x4,0x0                   E_PIN = 0;                                                       C:\MCC18\src\traditional\pmc\XLCD\busyxlcd.c
000658   9a81     BCF       0x81,0x5,0x0                   RW_PIN = 0;             // Reset control line                    C:\MCC18\src\traditional\pmc\XLCD\busyxlcd.c
00065a   0e00     MOVLW     0x0                            return 0;               // Return FALSE                          C:\MCC18\src\traditional\pmc\XLCD\busyxlcd.c
00065c   d000     BRA       0x65e                                                                                           
                                                   }                                                                        C:\MCC18\src\traditional\pmc\XLCD\busyxlcd.c
                                           #endif                                                                           C:\MCC18\src\traditional\pmc\XLCD\busyxlcd.c
00065e   0012     RETURN    0x0            }                                                                                C:\MCC18\src\traditional\pmc\XLCD\busyxlcd.c
                                                                                                                            C:\MCC18\src\traditional\pmc\XLCD\busyxlcd.c
                                           /* $Id: putsxlcd.c,v 1.1 2003/12/09 22:52:09 GrosbaJ Exp $ */                    C:\MCC18\src\traditional\pmc\XLCD\putsxlcd.c
                                           #include <p18cxxx.h>                                                             C:\MCC18\src\traditional\pmc\XLCD\putsxlcd.c
                                           #include <xlcd.h>                                                                C:\MCC18\src\traditional\pmc\XLCD\putsxlcd.c
                                                                                                                            C:\MCC18\src\traditional\pmc\XLCD\putsxlcd.c
                                           /********************************************************************            C:\MCC18\src\traditional\pmc\XLCD\putsxlcd.c
                                           *       Function Name:  putsXLCD                                                 C:\MCC18\src\traditional\pmc\XLCD\putsxlcd.c
                                           *       Return Value:   void                                                     C:\MCC18\src\traditional\pmc\XLCD\putsxlcd.c
                                           *       Parameters:     buffer: pointer to string                                C:\MCC18\src\traditional\pmc\XLCD\putsxlcd.c
                                           *       Description:    This routine writes a string of bytes to the             C:\MCC18\src\traditional\pmc\XLCD\putsxlcd.c
                                           *                       Hitachi HD44780 LCD controller. The user                 C:\MCC18\src\traditional\pmc\XLCD\putsxlcd.c
                                           *                       must check to see if the LCD controller is               C:\MCC18\src\traditional\pmc\XLCD\putsxlcd.c
                                           *                       busy before calling this routine. The data               C:\MCC18\src\traditional\pmc\XLCD\putsxlcd.c
                                           *                       is written to the character generator RAM or             C:\MCC18\src\traditional\pmc\XLCD\putsxlcd.c
                                           *                       the display data RAM depending on what the               C:\MCC18\src\traditional\pmc\XLCD\putsxlcd.c
                                           *                       previous SetxxRamAddr routine was called.                C:\MCC18\src\traditional\pmc\XLCD\putsxlcd.c
                                           ********************************************************************/            C:\MCC18\src\traditional\pmc\XLCD\putsxlcd.c
000588   cfd9     MOVFF     0xfd9,0xfe6    void putsXLCD(char *buffer)                                                      C:\MCC18\src\traditional\pmc\XLCD\putsxlcd.c
00058a   ffe6                                                                                                               
00058c   cfe1     MOVFF     0xfe1,0xfd9                                                                                     
00058e   ffd9                                                                                                               
                                           {                                                                                C:\MCC18\src\traditional\pmc\XLCD\putsxlcd.c
000590   0efd     MOVLW     0xfd                   while(*buffer)                  // Write data to LCD up to null          C:\MCC18\src\traditional\pmc\XLCD\putsxlcd.c
000592   cfdb     MOVFF     0xfdb,0xfe9                                                                                     
000594   ffe9                                                                                                               
000596   0efe     MOVLW     0xfe                                                                                            
000598   cfdb     MOVFF     0xfdb,0xfea                                                                                     
00059a   ffea                                                                                                               
00059c   50ef     MOVF      0xef,0x0,0x0                                                                                    
00059e   e016     BZ        0x5cc                                                                                           
0005ca   d7e2     BRA       0x590                                                                                           
                                                   {                                                                        C:\MCC18\src\traditional\pmc\XLCD\putsxlcd.c
0005a0   ec11     CALL      0x622,0x0                      while(BusyXLCD());      // Wait while LCD is busy                C:\MCC18\src\traditional\pmc\XLCD\putsxlcd.c
0005a2   f003                                                                                                               
0005a4   0900     IORLW     0x0                                                                                             
0005a6   e001     BZ        0x5aa                                                                                           
0005a8   d7fb     BRA       0x5a0                                                                                           
0005aa   0efd     MOVLW     0xfd                           WriteDataXLCD(*buffer); // Write character to LCD                C:\MCC18\src\traditional\pmc\XLCD\putsxlcd.c
0005ac   cfdb     MOVFF     0xfdb,0xfe9                                                                                     
0005ae   ffe9                                                                                                               
0005b0   0efe     MOVLW     0xfe                                                                                            
0005b2   cfdb     MOVFF     0xfdb,0xfea                                                                                     
0005b4   ffea                                                                                                               
0005b6   50ef     MOVF      0xef,0x0,0x0                                                                                    
0005b8   6ee6     MOVWF     0xe6,0x0                                                                                        
0005ba   ec76     CALL      0x4ec,0x0                                                                                       
0005bc   f002                                                                                                               
0005be   52e5     MOVF      0xe5,0x1,0x0                                                                                    
0005c0   0efd     MOVLW     0xfd                           buffer++;               // Increment buffer                      C:\MCC18\src\traditional\pmc\XLCD\putsxlcd.c
0005c2   2adb     INCF      0xdb,0x1,0x0                                                                                    
0005c4   0efe     MOVLW     0xfe                                                                                            
0005c6   e301     BNC       0x5ca                                                                                           
0005c8   2adb     INCF      0xdb,0x1,0x0                                                                                    
                                                   }                                                                        C:\MCC18\src\traditional\pmc\XLCD\putsxlcd.c
0005cc   d000     BRA       0x5ce                  return;                                                                  C:\MCC18\src\traditional\pmc\XLCD\putsxlcd.c
0005ce   52e5     MOVF      0xe5,0x1,0x0   }                                                                                C:\MCC18\src\traditional\pmc\XLCD\putsxlcd.c
0005d0   cfe7     MOVFF     0xfe7,0xfd9                                                                                     
0005d2   ffd9                                                                                                               
0005d4   0012     RETURN    0x0                                                                                             
                                                                                                                            C:\MCC18\src\traditional\pmc\XLCD\putsxlcd.c
                                           /* $Id: writdata.c,v 1.1 2003/12/09 22:52:09 GrosbaJ Exp $ */                    C:\MCC18\src\traditional\pmc\XLCD\writdata.c
                                           #include <p18cxxx.h>                                                             C:\MCC18\src\traditional\pmc\XLCD\writdata.c
                                           #include <xlcd.h>                                                                C:\MCC18\src\traditional\pmc\XLCD\writdata.c
                                                                                                                            C:\MCC18\src\traditional\pmc\XLCD\writdata.c
                                           /********************************************************************            C:\MCC18\src\traditional\pmc\XLCD\writdata.c
                                           *       Function Name:  WriteDataXLCD                               *            C:\MCC18\src\traditional\pmc\XLCD\writdata.c
                                           *       Return Value:   void                                        *            C:\MCC18\src\traditional\pmc\XLCD\writdata.c
                                           *       Parameters:     data: data byte to be written to LCD        *            C:\MCC18\src\traditional\pmc\XLCD\writdata.c
                                           *       Description:    This routine writes a data byte to the      *            C:\MCC18\src\traditional\pmc\XLCD\writdata.c
                                           *                       Hitachi HD44780 LCD controller. The user    *            C:\MCC18\src\traditional\pmc\XLCD\writdata.c
                                           *                       must check to see if the LCD controller is  *            C:\MCC18\src\traditional\pmc\XLCD\writdata.c
                                           *                       busy before calling this routine. The data  *            C:\MCC18\src\traditional\pmc\XLCD\writdata.c
                                           *                       is written to the character generator RAM or*            C:\MCC18\src\traditional\pmc\XLCD\writdata.c
                                           *                       the display data RAM depending on what the  *            C:\MCC18\src\traditional\pmc\XLCD\writdata.c
                                           *                       previous SetxxRamAddr routine was called.   *            C:\MCC18\src\traditional\pmc\XLCD\writdata.c
                                           ********************************************************************/            C:\MCC18\src\traditional\pmc\XLCD\writdata.c
0004ec   cfd9     MOVFF     0xfd9,0xfe6    void WriteDataXLCD(char data)                                                    C:\MCC18\src\traditional\pmc\XLCD\writdata.c
0004ee   ffe6                                                                                                               
0004f0   cfe1     MOVFF     0xfe1,0xfd9                                                                                     
0004f2   ffd9                                                                                                               
                                           {                                                                                C:\MCC18\src\traditional\pmc\XLCD\writdata.c
                                           #ifdef BIT8                             // 8-bit interface                       C:\MCC18\src\traditional\pmc\XLCD\writdata.c
                                                   TRIS_DATA_PORT = 0;             // Make port output                      C:\MCC18\src\traditional\pmc\XLCD\writdata.c
                                                   DATA_PORT = data;               // Write data to port                    C:\MCC18\src\traditional\pmc\XLCD\writdata.c
                                                   RS_PIN = 1;                     // Set control bits                      C:\MCC18\src\traditional\pmc\XLCD\writdata.c
                                                   RW_PIN = 0;                                                              C:\MCC18\src\traditional\pmc\XLCD\writdata.c
                                                   DelayFor18TCY();                                                         C:\MCC18\src\traditional\pmc\XLCD\writdata.c
                                                   E_PIN = 1;                      // Clock data into LCD                   C:\MCC18\src\traditional\pmc\XLCD\writdata.c
                                                   DelayFor18TCY();                                                         C:\MCC18\src\traditional\pmc\XLCD\writdata.c
                                                   E_PIN = 0;                                                               C:\MCC18\src\traditional\pmc\XLCD\writdata.c
                                                   RS_PIN = 0;                     // Reset control bits                    C:\MCC18\src\traditional\pmc\XLCD\writdata.c
                                                   TRIS_DATA_PORT = 0xff;          // Make port input                       C:\MCC18\src\traditional\pmc\XLCD\writdata.c
                                           #else                                   // 4-bit interface                       C:\MCC18\src\traditional\pmc\XLCD\writdata.c
                                           #ifdef UPPER                            // Upper nibble interface                C:\MCC18\src\traditional\pmc\XLCD\writdata.c
                                                   TRIS_DATA_PORT &= 0x0f;                                                  C:\MCC18\src\traditional\pmc\XLCD\writdata.c
                                                   DATA_PORT &= 0x0f;                                                       C:\MCC18\src\traditional\pmc\XLCD\writdata.c
                                                   DATA_PORT |= data&0xf0;                                                  C:\MCC18\src\traditional\pmc\XLCD\writdata.c
                                           #else                                   // Lower nibble interface                C:\MCC18\src\traditional\pmc\XLCD\writdata.c
0004f4   0ef0     MOVLW     0xf0                   TRIS_DATA_PORT &= 0xf0;                                                  C:\MCC18\src\traditional\pmc\XLCD\writdata.c
0004f6   1693     ANDWF     0x93,0x1,0x0                                                                                    
0004f8   1681     ANDWF     0x81,0x1,0x0           DATA_PORT &= 0xf0;                                                       C:\MCC18\src\traditional\pmc\XLCD\writdata.c
0004fa   0efe     MOVLW     0xfe                   DATA_PORT |= ((data>>4)&0x0f);                                           C:\MCC18\src\traditional\pmc\XLCD\writdata.c
0004fc   38db     SWAPF     0xdb,0x0,0x0                                                                                    
0004fe   0b0f     ANDLW     0xf                                                                                             
000500   0b0f     ANDLW     0xf                                                                                             
000502   1281     IORWF     0x81,0x1,0x0                                                                                    
                                           #endif                                                                           C:\MCC18\src\traditional\pmc\XLCD\writdata.c
000504   8881     BSF       0x81,0x4,0x0           RS_PIN = 1;                     // Set control bits                      C:\MCC18\src\traditional\pmc\XLCD\writdata.c
000506   9a81     BCF       0x81,0x5,0x0           RW_PIN = 0;                                                              C:\MCC18\src\traditional\pmc\XLCD\writdata.c
000508   eceb     CALL      0x5d6,0x0              DelayFor18TCY();                                                         C:\MCC18\src\traditional\pmc\XLCD\writdata.c
00050a   f002                                                                                                               
00050c   8880     BSF       0x80,0x4,0x0           E_PIN = 1;                      // Clock nibble into LCD                 C:\MCC18\src\traditional\pmc\XLCD\writdata.c
00050e   eceb     CALL      0x5d6,0x0              DelayFor18TCY();                                                         C:\MCC18\src\traditional\pmc\XLCD\writdata.c
000510   f002                                                                                                               
000512   9880     BCF       0x80,0x4,0x0           E_PIN = 0;                                                               C:\MCC18\src\traditional\pmc\XLCD\writdata.c
                                           #ifdef UPPER                            // Upper nibble interface                C:\MCC18\src\traditional\pmc\XLCD\writdata.c
                                                   DATA_PORT &= 0x0f;                                                       C:\MCC18\src\traditional\pmc\XLCD\writdata.c
                                                   DATA_PORT |= ((data<<4)&0xf0);                                           C:\MCC18\src\traditional\pmc\XLCD\writdata.c
                                           #else                                   // Lower nibble interface                C:\MCC18\src\traditional\pmc\XLCD\writdata.c
000514   0ef0     MOVLW     0xf0                   DATA_PORT &= 0xf0;                                                       C:\MCC18\src\traditional\pmc\XLCD\writdata.c
000516   1681     ANDWF     0x81,0x1,0x0                                                                                    
000518   0efe     MOVLW     0xfe                   DATA_PORT |= (data&0x0f);                                                C:\MCC18\src\traditional\pmc\XLCD\writdata.c
00051a   50db     MOVF      0xdb,0x0,0x0                                                                                    
00051c   0b0f     ANDLW     0xf                                                                                             
00051e   1281     IORWF     0x81,0x1,0x0                                                                                    
                                           #endif                                                                           C:\MCC18\src\traditional\pmc\XLCD\writdata.c
000520   eceb     CALL      0x5d6,0x0              DelayFor18TCY();                                                         C:\MCC18\src\traditional\pmc\XLCD\writdata.c
000522   f002                                                                                                               
000524   8880     BSF       0x80,0x4,0x0           E_PIN = 1;                      // Clock nibble into LCD                 C:\MCC18\src\traditional\pmc\XLCD\writdata.c
000526   eceb     CALL      0x5d6,0x0              DelayFor18TCY();                                                         C:\MCC18\src\traditional\pmc\XLCD\writdata.c
000528   f002                                                                                                               
00052a   9880     BCF       0x80,0x4,0x0           E_PIN = 0;                                                               C:\MCC18\src\traditional\pmc\XLCD\writdata.c
                                           #ifdef UPPER                            // Upper nibble interface                C:\MCC18\src\traditional\pmc\XLCD\writdata.c
                                                   TRIS_DATA_PORT |= 0xf0;                                                  C:\MCC18\src\traditional\pmc\XLCD\writdata.c
                                           #else                                   // Lower nibble interface                C:\MCC18\src\traditional\pmc\XLCD\writdata.c
00052c   0e0f     MOVLW     0xf                    TRIS_DATA_PORT |= 0x0f;                                                  C:\MCC18\src\traditional\pmc\XLCD\writdata.c
00052e   1293     IORWF     0x93,0x1,0x0                                                                                    
                                           #endif                                                                           C:\MCC18\src\traditional\pmc\XLCD\writdata.c
                                           #endif                                                                           C:\MCC18\src\traditional\pmc\XLCD\writdata.c
000530   d000     BRA       0x532                  return;                                                                  C:\MCC18\src\traditional\pmc\XLCD\writdata.c
000532   52e5     MOVF      0xe5,0x1,0x0   }                                                                                C:\MCC18\src\traditional\pmc\XLCD\writdata.c
000534   cfe7     MOVFF     0xfe7,0xfd9                                                                                     
000536   ffd9                                                                                                               
000538   0012     RETURN    0x0                                                                                             
                                                                                                                            C:\MCC18\src\traditional\pmc\XLCD\writdata.c
                                           /* $Id: wcmdxlcd.c,v 1.1 2003/12/09 22:52:09 GrosbaJ Exp $ */                    C:\MCC18\src\traditional\pmc\XLCD\wcmdxlcd.c
                                           #include <p18cxxx.h>                                                             C:\MCC18\src\traditional\pmc\XLCD\wcmdxlcd.c
                                           #include <xlcd.h>                                                                C:\MCC18\src\traditional\pmc\XLCD\wcmdxlcd.c
                                                                                                                            C:\MCC18\src\traditional\pmc\XLCD\wcmdxlcd.c
                                           /********************************************************************            C:\MCC18\src\traditional\pmc\XLCD\wcmdxlcd.c
                                           *       Function Name:  WriteCmdXLCD                                *            C:\MCC18\src\traditional\pmc\XLCD\wcmdxlcd.c
                                           *       Return Value:   void                                        *            C:\MCC18\src\traditional\pmc\XLCD\wcmdxlcd.c
                                           *       Parameters:     cmd: command to send to LCD                 *            C:\MCC18\src\traditional\pmc\XLCD\wcmdxlcd.c
                                           *       Description:    This routine writes a command to the Hitachi*            C:\MCC18\src\traditional\pmc\XLCD\wcmdxlcd.c
                                           *                       HD44780 LCD controller. The user must check *            C:\MCC18\src\traditional\pmc\XLCD\wcmdxlcd.c
                                           *                       to see if the LCD controller is busy before *            C:\MCC18\src\traditional\pmc\XLCD\wcmdxlcd.c
                                           *                       calling this routine.                       *            C:\MCC18\src\traditional\pmc\XLCD\wcmdxlcd.c
                                           ********************************************************************/            C:\MCC18\src\traditional\pmc\XLCD\wcmdxlcd.c
00053a   cfd9     MOVFF     0xfd9,0xfe6    void WriteCmdXLCD(unsigned char cmd)                                             C:\MCC18\src\traditional\pmc\XLCD\wcmdxlcd.c
00053c   ffe6                                                                                                               
00053e   cfe1     MOVFF     0xfe1,0xfd9                                                                                     
000540   ffd9                                                                                                               
                                           {                                                                                C:\MCC18\src\traditional\pmc\XLCD\wcmdxlcd.c
                                           #ifdef BIT8                             // 8-bit interface                       C:\MCC18\src\traditional\pmc\XLCD\wcmdxlcd.c
                                                   TRIS_DATA_PORT = 0;             // Data port output                      C:\MCC18\src\traditional\pmc\XLCD\wcmdxlcd.c
                                                   DATA_PORT = cmd;                // Write command to data port            C:\MCC18\src\traditional\pmc\XLCD\wcmdxlcd.c
                                                   RW_PIN = 0;                     // Set the control signals               C:\MCC18\src\traditional\pmc\XLCD\wcmdxlcd.c
                                                   RS_PIN = 0;                     // for sending a command                 C:\MCC18\src\traditional\pmc\XLCD\wcmdxlcd.c
                                                   DelayFor18TCY();                                                         C:\MCC18\src\traditional\pmc\XLCD\wcmdxlcd.c
                                                   E_PIN = 1;                      // Clock the command in                  C:\MCC18\src\traditional\pmc\XLCD\wcmdxlcd.c
                                                   DelayFor18TCY();                                                         C:\MCC18\src\traditional\pmc\XLCD\wcmdxlcd.c
                                                   E_PIN = 0;                                                               C:\MCC18\src\traditional\pmc\XLCD\wcmdxlcd.c
                                                   Nop();                                                                   C:\MCC18\src\traditional\pmc\XLCD\wcmdxlcd.c
                                                   TRIS_DATA_PORT = 0xff;          // Data port input                       C:\MCC18\src\traditional\pmc\XLCD\wcmdxlcd.c
                                           #else                                   // 4-bit interface                       C:\MCC18\src\traditional\pmc\XLCD\wcmdxlcd.c
                                           #ifdef UPPER                            // Upper nibble interface                C:\MCC18\src\traditional\pmc\XLCD\wcmdxlcd.c
                                                   TRIS_DATA_PORT &= 0x0f;                                                  C:\MCC18\src\traditional\pmc\XLCD\wcmdxlcd.c
                                                   DATA_PORT &= 0x0f;                                                       C:\MCC18\src\traditional\pmc\XLCD\wcmdxlcd.c
                                                   DATA_PORT |= cmd&0xf0;                                                   C:\MCC18\src\traditional\pmc\XLCD\wcmdxlcd.c
                                           #else                                   // Lower nibble interface                C:\MCC18\src\traditional\pmc\XLCD\wcmdxlcd.c
000542   0ef0     MOVLW     0xf0                   TRIS_DATA_PORT &= 0xf0;                                                  C:\MCC18\src\traditional\pmc\XLCD\wcmdxlcd.c
000544   1693     ANDWF     0x93,0x1,0x0                                                                                    
000546   1681     ANDWF     0x81,0x1,0x0           DATA_PORT &= 0xf0;                                                       C:\MCC18\src\traditional\pmc\XLCD\wcmdxlcd.c
000548   0efe     MOVLW     0xfe                   DATA_PORT |= (cmd>>4)&0x0f;                                              C:\MCC18\src\traditional\pmc\XLCD\wcmdxlcd.c
00054a   38db     SWAPF     0xdb,0x0,0x0                                                                                    
00054c   0b0f     ANDLW     0xf                                                                                             
00054e   0b0f     ANDLW     0xf                                                                                             
000550   1281     IORWF     0x81,0x1,0x0                                                                                    
                                           #endif                                                                           C:\MCC18\src\traditional\pmc\XLCD\wcmdxlcd.c
000552   9a81     BCF       0x81,0x5,0x0           RW_PIN = 0;                     // Set control signals for command       C:\MCC18\src\traditional\pmc\XLCD\wcmdxlcd.c
000554   9881     BCF       0x81,0x4,0x0           RS_PIN = 0;                                                              C:\MCC18\src\traditional\pmc\XLCD\wcmdxlcd.c
000556   eceb     CALL      0x5d6,0x0              DelayFor18TCY();                                                         C:\MCC18\src\traditional\pmc\XLCD\wcmdxlcd.c
000558   f002                                                                                                               
00055a   8880     BSF       0x80,0x4,0x0           E_PIN = 1;                      // Clock command in                      C:\MCC18\src\traditional\pmc\XLCD\wcmdxlcd.c
00055c   eceb     CALL      0x5d6,0x0              DelayFor18TCY();                                                         C:\MCC18\src\traditional\pmc\XLCD\wcmdxlcd.c
00055e   f002                                                                                                               
000560   9880     BCF       0x80,0x4,0x0           E_PIN = 0;                                                               C:\MCC18\src\traditional\pmc\XLCD\wcmdxlcd.c
                                           #ifdef UPPER                            // Upper nibble interface                C:\MCC18\src\traditional\pmc\XLCD\wcmdxlcd.c
                                                   DATA_PORT &= 0x0f;                                                       C:\MCC18\src\traditional\pmc\XLCD\wcmdxlcd.c
                                                   DATA_PORT |= (cmd<<4)&0xf0;                                              C:\MCC18\src\traditional\pmc\XLCD\wcmdxlcd.c
                                           #else                                   // Lower nibble interface                C:\MCC18\src\traditional\pmc\XLCD\wcmdxlcd.c
000562   0ef0     MOVLW     0xf0                   DATA_PORT &= 0xf0;                                                       C:\MCC18\src\traditional\pmc\XLCD\wcmdxlcd.c
000564   1681     ANDWF     0x81,0x1,0x0                                                                                    
000566   0efe     MOVLW     0xfe                   DATA_PORT |= cmd&0x0f;                                                   C:\MCC18\src\traditional\pmc\XLCD\wcmdxlcd.c
000568   50db     MOVF      0xdb,0x0,0x0                                                                                    
00056a   0b0f     ANDLW     0xf                                                                                             
00056c   1281     IORWF     0x81,0x1,0x0                                                                                    
                                           #endif                                                                           C:\MCC18\src\traditional\pmc\XLCD\wcmdxlcd.c
00056e   eceb     CALL      0x5d6,0x0              DelayFor18TCY();                                                         C:\MCC18\src\traditional\pmc\XLCD\wcmdxlcd.c
000570   f002                                                                                                               
000572   8880     BSF       0x80,0x4,0x0           E_PIN = 1;                      // Clock command in                      C:\MCC18\src\traditional\pmc\XLCD\wcmdxlcd.c
000574   eceb     CALL      0x5d6,0x0              DelayFor18TCY();                                                         C:\MCC18\src\traditional\pmc\XLCD\wcmdxlcd.c
000576   f002                                                                                                               
000578   9880     BCF       0x80,0x4,0x0           E_PIN = 0;                                                               C:\MCC18\src\traditional\pmc\XLCD\wcmdxlcd.c
                                           #ifdef UPPER                            // Make data nibble input                C:\MCC18\src\traditional\pmc\XLCD\wcmdxlcd.c
                                                   TRIS_DATA_PORT |= 0xf0;                                                  C:\MCC18\src\traditional\pmc\XLCD\wcmdxlcd.c
                                           #else                                                                            C:\MCC18\src\traditional\pmc\XLCD\wcmdxlcd.c
00057a   0e0f     MOVLW     0xf                    TRIS_DATA_PORT |= 0x0f;                                                  C:\MCC18\src\traditional\pmc\XLCD\wcmdxlcd.c
00057c   1293     IORWF     0x93,0x1,0x0                                                                                    
                                           #endif                                                                           C:\MCC18\src\traditional\pmc\XLCD\wcmdxlcd.c
                                           #endif                                                                           C:\MCC18\src\traditional\pmc\XLCD\wcmdxlcd.c
00057e   d000     BRA       0x580                  return;                                                                  C:\MCC18\src\traditional\pmc\XLCD\wcmdxlcd.c
000580   52e5     MOVF      0xe5,0x1,0x0   }                                                                                C:\MCC18\src\traditional\pmc\XLCD\wcmdxlcd.c
000582   cfe7     MOVFF     0xfe7,0xfd9                                                                                     
000584   ffd9                                                                                                               
000586   0012     RETURN    0x0                                                                                             
                                                                                                                            C:\MCC18\src\traditional\pmc\XLCD\wcmdxlcd.c
                                           #include <delays.h>                                                              C:\MCC18\src\traditional\pmc\XLCD\delayxlcd.c
                                                                                                                            C:\MCC18\src\traditional\pmc\XLCD\delayxlcd.c
                                           void DelayFor18TCY(void) // 18 Tcy                                               C:\MCC18\src\traditional\pmc\XLCD\delayxlcd.c
                                           {                                                                                C:\MCC18\src\traditional\pmc\XLCD\delayxlcd.c
0005d6   0000     NOP                      Nop();                                                                           C:\MCC18\src\traditional\pmc\XLCD\delayxlcd.c
0005d8   0000     NOP                      Nop();                                                                           C:\MCC18\src\traditional\pmc\XLCD\delayxlcd.c
0005da   0000     NOP                      Nop();                                                                           C:\MCC18\src\traditional\pmc\XLCD\delayxlcd.c
0005dc   0000     NOP                      Nop();                                                                           C:\MCC18\src\traditional\pmc\XLCD\delayxlcd.c
0005de   0000     NOP                      Nop();                                                                           C:\MCC18\src\traditional\pmc\XLCD\delayxlcd.c
                                                                                                                            C:\MCC18\src\traditional\pmc\XLCD\delayxlcd.c
0005e0   0000     NOP                      Nop();                                                                           C:\MCC18\src\traditional\pmc\XLCD\delayxlcd.c
0005e2   0000     NOP                      Nop();                                                                           C:\MCC18\src\traditional\pmc\XLCD\delayxlcd.c
0005e4   0000     NOP                      Nop();                                                                           C:\MCC18\src\traditional\pmc\XLCD\delayxlcd.c
0005e6   0000     NOP                      Nop();                                                                           C:\MCC18\src\traditional\pmc\XLCD\delayxlcd.c
0005e8   0000     NOP                      Nop();                                                                           C:\MCC18\src\traditional\pmc\XLCD\delayxlcd.c
                                                                                                                            C:\MCC18\src\traditional\pmc\XLCD\delayxlcd.c
0005ea   0000     NOP                      Nop();                                                                           C:\MCC18\src\traditional\pmc\XLCD\delayxlcd.c
0005ec   0000     NOP                      Nop();                                                                           C:\MCC18\src\traditional\pmc\XLCD\delayxlcd.c
0005ee   0000     NOP                      Nop();                                                                           C:\MCC18\src\traditional\pmc\XLCD\delayxlcd.c
0005f0   0000     NOP                      Nop();                                                                           C:\MCC18\src\traditional\pmc\XLCD\delayxlcd.c
0005f2   0012     RETURN    0x0            }                                                                                C:\MCC18\src\traditional\pmc\XLCD\delayxlcd.c
                                           void DelayPORXLCD(void) // 15 ms                                                 C:\MCC18\src\traditional\pmc\XLCD\delayxlcd.c
                                           {                                                                                C:\MCC18\src\traditional\pmc\XLCD\delayxlcd.c
0005f4   0e4b     MOVLW     0x4b           Delay1KTCYx(75);                                                                 C:\MCC18\src\traditional\pmc\XLCD\delayxlcd.c
0005f6   6ee6     MOVWF     0xe6,0x0                                                                                        
0005f8   ec30     CALL      0x660,0x0                                                                                       
0005fa   f003                                                                                                               
0005fc   52e5     MOVF      0xe5,0x1,0x0                                                                                    
0005fe   0012     RETURN    0x0            }                                                                                C:\MCC18\src\traditional\pmc\XLCD\delayxlcd.c
                                           void DelayXLCD(void)    // At least 4.1ms                                        C:\MCC18\src\traditional\pmc\XLCD\delayxlcd.c
                                           {                                                                                C:\MCC18\src\traditional\pmc\XLCD\delayxlcd.c
000600   0e14     MOVLW     0x14           Delay1KTCYx(20);                                                                 C:\MCC18\src\traditional\pmc\XLCD\delayxlcd.c
000602   6ee6     MOVWF     0xe6,0x0                                                                                        
000604   ec30     CALL      0x660,0x0                                                                                       
000606   f003                                                                                                               
000608   52e5     MOVF      0xe5,0x1,0x0                                                                                    
00060a   0e05     MOVLW     0x5            Delay100TCYx(5);                                                                 C:\MCC18\src\traditional\pmc\XLCD\delayxlcd.c
00060c   6ee6     MOVWF     0xe6,0x0                                                                                        
00060e   ec4e     CALL      0x69c,0x0                                                                                       
000610   f003                                                                                                               
000612   52e5     MOVF      0xe5,0x1,0x0                                                                                    
000614   0012     RETURN    0x0            }                                                                                C:\MCC18\src\traditional\pmc\XLCD\delayxlcd.c
                                           void Delay100uXLCD(void)                                                         C:\MCC18\src\traditional\pmc\XLCD\delayxlcd.c
                                           {                                                                                C:\MCC18\src\traditional\pmc\XLCD\delayxlcd.c
000616   0e05     MOVLW     0x5            	Delay100TCYx(5);                                                                C:\MCC18\src\traditional\pmc\XLCD\delayxlcd.c
000618   6ee6     MOVWF     0xe6,0x0                                                                                        
00061a   ec4e     CALL      0x69c,0x0                                                                                       
00061c   f003                                                                                                               
00061e   52e5     MOVF      0xe5,0x1,0x0                                                                                    
000620   0012     RETURN    0x0            }                                                                                C:\MCC18\src\traditional\pmc\XLCD\delayxlcd.c
                                                   LIST P=18F4431                                                           C:\MCC18\SRC\TRADIT~1\PROC\p18f4431.asm
                                                   LIST                                                                     C:\MCC18\SRC\TRADIT~1\PROC\p18f4431.asm
                                                   END                                                                      C:\MCC18\SRC\TRADIT~1\PROC\p18f4431.asm
                                           #include "p18cxxx.inc"                                                           C:\MCC18\SRC\TRADIT~1\DELAYS\d100tcyx.asm
                                                   LIST                                                                     C:\MCC18\MPASM\p18cxxx.inc
                                           ; P18CXXX.INC  Standard Header File, Version 1.00   Microchip Technology, Inc.   C:\MCC18\MPASM\p18cxxx.inc
                                                   LIST                                                                     C:\MCC18\MPASM\P18C452.INC
                                           ; P18C452.INC  Standard Header File, Version 0.12   Microchip Technology, Inc.   C:\MCC18\MPASM\P18C452.INC
                                                   LIST                                                                     C:\MCC18\MPASM\P18C452.INC
                                             ENDIF                                                                          C:\MCC18\MPASM\p18cxxx.inc
                                             IFDEF __18C242                                                                 C:\MCC18\MPASM\p18cxxx.inc
                                                INCLUDE <P18C242.INC>                                                       C:\MCC18\MPASM\p18cxxx.inc
                                             ENDIF                                                                          C:\MCC18\MPASM\p18cxxx.inc
                                             IFDEF __18F242                                                                 C:\MCC18\MPASM\p18cxxx.inc
                                                INCLUDE <P18F242.INC>                                                       C:\MCC18\MPASM\p18cxxx.inc
                                             ENDIF                                                                          C:\MCC18\MPASM\p18cxxx.inc
                                             IFDEF __18F248                                                                 C:\MCC18\MPASM\p18cxxx.inc
                                                INCLUDE <P18F248.INC>                                                       C:\MCC18\MPASM\p18cxxx.inc
                                             ENDIF                                                                          C:\MCC18\MPASM\p18cxxx.inc
                                             IFDEF __18C252                                                                 C:\MCC18\MPASM\p18cxxx.inc
                                                INCLUDE <P18C252.INC>                                                       C:\MCC18\MPASM\p18cxxx.inc
                                             ENDIF                                                                          C:\MCC18\MPASM\p18cxxx.inc
                                             IFDEF __18F252                                                                 C:\MCC18\MPASM\p18cxxx.inc
                                                INCLUDE <P18F252.INC>                                                       C:\MCC18\MPASM\p18cxxx.inc
                                             ENDIF                                                                          C:\MCC18\MPASM\p18cxxx.inc
                                             IFDEF __18F258                                                                 C:\MCC18\MPASM\p18cxxx.inc
                                                INCLUDE <P18F258.INC>                                                       C:\MCC18\MPASM\p18cxxx.inc
                                             ENDIF                                                                          C:\MCC18\MPASM\p18cxxx.inc
                                             IFDEF __18C442                                                                 C:\MCC18\MPASM\p18cxxx.inc
                                                INCLUDE <P18C442.INC>                                                       C:\MCC18\MPASM\p18cxxx.inc
                                             ENDIF                                                                          C:\MCC18\MPASM\p18cxxx.inc
                                             IFDEF __18F442                                                                 C:\MCC18\MPASM\p18cxxx.inc
                                                INCLUDE <P18F442.INC>                                                       C:\MCC18\MPASM\p18cxxx.inc
                                             ENDIF                                                                          C:\MCC18\MPASM\p18cxxx.inc
                                             IFDEF __18F448                                                                 C:\MCC18\MPASM\p18cxxx.inc
                                                INCLUDE <P18F448.INC>                                                       C:\MCC18\MPASM\p18cxxx.inc
                                             ENDIF                                                                          C:\MCC18\MPASM\p18cxxx.inc
                                             IFDEF __18C452                                                                 C:\MCC18\MPASM\p18cxxx.inc
                                                INCLUDE <P18C452.INC>                                                       C:\MCC18\MPASM\p18cxxx.inc
                                             ENDIF                                                                          C:\MCC18\MPASM\p18cxxx.inc
                                             IFDEF __18F452                                                                 C:\MCC18\MPASM\p18cxxx.inc
                                                INCLUDE <P18F452.INC>                                                       C:\MCC18\MPASM\p18cxxx.inc
                                             ENDIF                                                                          C:\MCC18\MPASM\p18cxxx.inc
                                             IFDEF __18F458                                                                 C:\MCC18\MPASM\p18cxxx.inc
                                                INCLUDE <P18F458.INC>                                                       C:\MCC18\MPASM\p18cxxx.inc
                                             ENDIF                                                                          C:\MCC18\MPASM\p18cxxx.inc
                                             IFDEF __18C601                                                                 C:\MCC18\MPASM\p18cxxx.inc
                                                INCLUDE <P18C601.INC>                                                       C:\MCC18\MPASM\p18cxxx.inc
                                             ENDIF                                                                          C:\MCC18\MPASM\p18cxxx.inc
                                             IFDEF __18C658                                                                 C:\MCC18\MPASM\p18cxxx.inc
                                                INCLUDE <P18C658.INC>                                                       C:\MCC18\MPASM\p18cxxx.inc
                                             ENDIF                                                                          C:\MCC18\MPASM\p18cxxx.inc
                                             IFDEF __18C801                                                                 C:\MCC18\MPASM\p18cxxx.inc
                                                INCLUDE <P18C801.INC>                                                       C:\MCC18\MPASM\p18cxxx.inc
                                             ENDIF                                                                          C:\MCC18\MPASM\p18cxxx.inc
                                             IFDEF __18C858                                                                 C:\MCC18\MPASM\p18cxxx.inc
                                                INCLUDE <P18C858.INC>                                                       C:\MCC18\MPASM\p18cxxx.inc
                                             ENDIF                                                                          C:\MCC18\MPASM\p18cxxx.inc
                                             IFDEF __18F1220                                                                C:\MCC18\MPASM\p18cxxx.inc
                                                INCLUDE <P18F1220.INC>                                                      C:\MCC18\MPASM\p18cxxx.inc
                                             ENDIF                                                                          C:\MCC18\MPASM\p18cxxx.inc
                                             IFDEF __18F1320                                                                C:\MCC18\MPASM\p18cxxx.inc
                                                INCLUDE <P18F1320.INC>                                                      C:\MCC18\MPASM\p18cxxx.inc
                                             ENDIF                                                                          C:\MCC18\MPASM\p18cxxx.inc
                                             IFDEF __18F2220                                                                C:\MCC18\MPASM\p18cxxx.inc
                                                INCLUDE <P18F2220.INC>                                                      C:\MCC18\MPASM\p18cxxx.inc
                                             ENDIF                                                                          C:\MCC18\MPASM\p18cxxx.inc
                                             IFDEF __18F2320                                                                C:\MCC18\MPASM\p18cxxx.inc
                                                INCLUDE <P18F2320.INC>                                                      C:\MCC18\MPASM\p18cxxx.inc
                                             ENDIF                                                                          C:\MCC18\MPASM\p18cxxx.inc
                                             IFDEF __18F4220                                                                C:\MCC18\MPASM\p18cxxx.inc
                                                INCLUDE <P18F4220.INC>                                                      C:\MCC18\MPASM\p18cxxx.inc
                                             ENDIF                                                                          C:\MCC18\MPASM\p18cxxx.inc
                                             IFDEF __18F4320                                                                C:\MCC18\MPASM\p18cxxx.inc
                                                INCLUDE <P18F4320.INC>                                                      C:\MCC18\MPASM\p18cxxx.inc
                                             ENDIF                                                                          C:\MCC18\MPASM\p18cxxx.inc
                                             IFDEF __18F6520                                                                C:\MCC18\MPASM\p18cxxx.inc
                                                INCLUDE <P18F6520.INC>                                                      C:\MCC18\MPASM\p18cxxx.inc
                                             ENDIF                                                                          C:\MCC18\MPASM\p18cxxx.inc
                                             IFDEF __18F6620                                                                C:\MCC18\MPASM\p18cxxx.inc
                                                INCLUDE <P18F6620.INC>                                                      C:\MCC18\MPASM\p18cxxx.inc
                                             ENDIF                                                                          C:\MCC18\MPASM\p18cxxx.inc
                                             IFDEF __18F6720                                                                C:\MCC18\MPASM\p18cxxx.inc
                                                INCLUDE <P18F6720.INC>                                                      C:\MCC18\MPASM\p18cxxx.inc
                                             ENDIF                                                                          C:\MCC18\MPASM\p18cxxx.inc
                                             IFDEF __18F8520                                                                C:\MCC18\MPASM\p18cxxx.inc
                                                INCLUDE <P18F8520.INC>                                                      C:\MCC18\MPASM\p18cxxx.inc
                                             ENDIF                                                                          C:\MCC18\MPASM\p18cxxx.inc
                                             IFDEF __18F8620                                                                C:\MCC18\MPASM\p18cxxx.inc
                                                INCLUDE <P18F8620.INC>                                                      C:\MCC18\MPASM\p18cxxx.inc
                                             ENDIF                                                                          C:\MCC18\MPASM\p18cxxx.inc
                                             IFDEF __18F8720                                                                C:\MCC18\MPASM\p18cxxx.inc
                                                INCLUDE <P18F8720.INC>                                                      C:\MCC18\MPASM\p18cxxx.inc
                                             ENDIF                                                                          C:\MCC18\MPASM\p18cxxx.inc
                                             IFDEF __18F2439                                                                C:\MCC18\MPASM\p18cxxx.inc
                                                INCLUDE <P18F2439.INC>                                                      C:\MCC18\MPASM\p18cxxx.inc
                                             ENDIF                                                                          C:\MCC18\MPASM\p18cxxx.inc
                                             IFDEF __18F2539                                                                C:\MCC18\MPASM\p18cxxx.inc
                                                INCLUDE <P18F2539.INC>                                                      C:\MCC18\MPASM\p18cxxx.inc
                                             ENDIF                                                                          C:\MCC18\MPASM\p18cxxx.inc
                                             IFDEF __18F4439                                                                C:\MCC18\MPASM\p18cxxx.inc
                                                INCLUDE <P18F4439.INC>                                                      C:\MCC18\MPASM\p18cxxx.inc
                                             ENDIF                                                                          C:\MCC18\MPASM\p18cxxx.inc
                                             IFDEF __18F4539                                                                C:\MCC18\MPASM\p18cxxx.inc
                                                INCLUDE <P18F4539.INC>                                                      C:\MCC18\MPASM\p18cxxx.inc
                                             ENDIF                                                                          C:\MCC18\MPASM\p18cxxx.inc
                                             IFDEF __18F8680                                                                C:\MCC18\MPASM\p18cxxx.inc
                                                INCLUDE <P18F8680.INC>                                                      C:\MCC18\MPASM\p18cxxx.inc
                                             ENDIF                                                                          C:\MCC18\MPASM\p18cxxx.inc
                                             IFDEF __18F6680                                                                C:\MCC18\MPASM\p18cxxx.inc
                                                INCLUDE <P18F6680.INC>                                                      C:\MCC18\MPASM\p18cxxx.inc
                                             ENDIF                                                                          C:\MCC18\MPASM\p18cxxx.inc
                                             IFDEF __18F8585                                                                C:\MCC18\MPASM\p18cxxx.inc
                                                INCLUDE <P18F8585.INC>                                                      C:\MCC18\MPASM\p18cxxx.inc
                                             ENDIF                                                                          C:\MCC18\MPASM\p18cxxx.inc
                                             IFDEF __18F6585                                                                C:\MCC18\MPASM\p18cxxx.inc
                                                INCLUDE <P18F6585.INC>                                                      C:\MCC18\MPASM\p18cxxx.inc
                                             ENDIF                                                                          C:\MCC18\MPASM\p18cxxx.inc
                                             IFDEF __18F6621                                                                C:\MCC18\MPASM\p18cxxx.inc
                                                INCLUDE <P18F6621.INC>                                                      C:\MCC18\MPASM\p18cxxx.inc
                                             ENDIF                                                                          C:\MCC18\MPASM\p18cxxx.inc
                                             IFDEF __18F8621                                                                C:\MCC18\MPASM\p18cxxx.inc
                                                INCLUDE <P18F8621.INC>                                                      C:\MCC18\MPASM\p18cxxx.inc
                                             ENDIF                                                                          C:\MCC18\MPASM\p18cxxx.inc
                                             IFDEF __18F6525                                                                C:\MCC18\MPASM\p18cxxx.inc
                                                INCLUDE <P18F6525.INC>                                                      C:\MCC18\MPASM\p18cxxx.inc
                                             ENDIF                                                                          C:\MCC18\MPASM\p18cxxx.inc
                                             IFDEF __18F8525                                                                C:\MCC18\MPASM\p18cxxx.inc
                                                INCLUDE <P18F8525.INC>                                                      C:\MCC18\MPASM\p18cxxx.inc
                                             ENDIF                                                                          C:\MCC18\MPASM\p18cxxx.inc
                                             IFDEF __18F2331                                                                C:\MCC18\MPASM\p18cxxx.inc
                                                INCLUDE <P18F2331.INC>                                                      C:\MCC18\MPASM\p18cxxx.inc
                                             ENDIF                                                                          C:\MCC18\MPASM\p18cxxx.inc
                                             IFDEF __18F2431                                                                C:\MCC18\MPASM\p18cxxx.inc
                                                INCLUDE <P18F2431.INC>                                                      C:\MCC18\MPASM\p18cxxx.inc
                                             ENDIF                                                                          C:\MCC18\MPASM\p18cxxx.inc
                                             IFDEF __18F4331                                                                C:\MCC18\MPASM\p18cxxx.inc
                                                INCLUDE <P18F4331.INC>                                                      C:\MCC18\MPASM\p18cxxx.inc
                                             ENDIF                                                                          C:\MCC18\MPASM\p18cxxx.inc
                                             IFDEF __18F4431                                                                C:\MCC18\MPASM\p18cxxx.inc
                                                INCLUDE <P18F4431.INC>                                                      C:\MCC18\MPASM\p18cxxx.inc
                                             ENDIF                                                                          C:\MCC18\MPASM\p18cxxx.inc
                                             IFDEF __18F2515                                                                C:\MCC18\MPASM\p18cxxx.inc
                                                INCLUDE <P18F2515.INC>                                                      C:\MCC18\MPASM\p18cxxx.inc
                                             ENDIF                                                                          C:\MCC18\MPASM\p18cxxx.inc
                                             IFDEF __18F2525                                                                C:\MCC18\MPASM\p18cxxx.inc
                                                INCLUDE <P18F2525.INC>                                                      C:\MCC18\MPASM\p18cxxx.inc
                                             ENDIF                                                                          C:\MCC18\MPASM\p18cxxx.inc
                                             IFDEF __18F2610                                                                C:\MCC18\MPASM\p18cxxx.inc
                                                INCLUDE <P18F2610.INC>                                                      C:\MCC18\MPASM\p18cxxx.inc
                                             ENDIF                                                                          C:\MCC18\MPASM\p18cxxx.inc
                                             IFDEF __18F2620                                                                C:\MCC18\MPASM\p18cxxx.inc
                                                INCLUDE <P18F2620.INC>                                                      C:\MCC18\MPASM\p18cxxx.inc
                                             ENDIF                                                                          C:\MCC18\MPASM\p18cxxx.inc
                                             IFDEF __18F4515                                                                C:\MCC18\MPASM\p18cxxx.inc
                                                INCLUDE <P18F4515.INC>                                                      C:\MCC18\MPASM\p18cxxx.inc
                                             ENDIF                                                                          C:\MCC18\MPASM\p18cxxx.inc
                                             IFDEF __18F4525                                                                C:\MCC18\MPASM\p18cxxx.inc
                                                INCLUDE <P18F4525.INC>                                                      C:\MCC18\MPASM\p18cxxx.inc
                                             ENDIF                                                                          C:\MCC18\MPASM\p18cxxx.inc
                                             IFDEF __18F4610                                                                C:\MCC18\MPASM\p18cxxx.inc
                                                INCLUDE <P18F4610.INC>                                                      C:\MCC18\MPASM\p18cxxx.inc
                                             ENDIF                                                                          C:\MCC18\MPASM\p18cxxx.inc
                                             IFDEF __18F4620                                                                C:\MCC18\MPASM\p18cxxx.inc
                                                INCLUDE <P18F4620.INC>                                                      C:\MCC18\MPASM\p18cxxx.inc
                                             ENDIF                                                                          C:\MCC18\MPASM\p18cxxx.inc
                                             IFDEF __18F6410                                                                C:\MCC18\MPASM\p18cxxx.inc
                                                INCLUDE <P18F6410.INC>                                                      C:\MCC18\MPASM\p18cxxx.inc
                                             ENDIF                                                                          C:\MCC18\MPASM\p18cxxx.inc
                                             IFDEF __18F6490                                                                C:\MCC18\MPASM\p18cxxx.inc
                                                INCLUDE <P18F6490.INC>                                                      C:\MCC18\MPASM\p18cxxx.inc
                                             ENDIF                                                                          C:\MCC18\MPASM\p18cxxx.inc
                                             IFDEF __18F8410                                                                C:\MCC18\MPASM\p18cxxx.inc
                                                INCLUDE <P18F8410.INC>                                                      C:\MCC18\MPASM\p18cxxx.inc
                                             ENDIF                                                                          C:\MCC18\MPASM\p18cxxx.inc
                                             IFDEF __18F8490                                                                C:\MCC18\MPASM\p18cxxx.inc
                                                INCLUDE <P18F8490.INC>                                                      C:\MCC18\MPASM\p18cxxx.inc
                                             ENDIF                                                                          C:\MCC18\MPASM\p18cxxx.inc
                                             IFDEF __18F2585                                                                C:\MCC18\MPASM\p18cxxx.inc
                                                INCLUDE <P18F2585.INC>                                                      C:\MCC18\MPASM\p18cxxx.inc
                                             ENDIF                                                                          C:\MCC18\MPASM\p18cxxx.inc
                                             IFDEF __18F2680                                                                C:\MCC18\MPASM\p18cxxx.inc
                                                INCLUDE <P18F2680.INC>                                                      C:\MCC18\MPASM\p18cxxx.inc
                                             ENDIF                                                                          C:\MCC18\MPASM\p18cxxx.inc
                                             IFDEF __18F2681                                                                C:\MCC18\MPASM\p18cxxx.inc
                                                INCLUDE <P18F2681.INC>                                                      C:\MCC18\MPASM\p18cxxx.inc
                                             ENDIF                                                                          C:\MCC18\MPASM\p18cxxx.inc
                                             IFDEF __18F4585                                                                C:\MCC18\MPASM\p18cxxx.inc
                                                INCLUDE <P18F4585.INC>                                                      C:\MCC18\MPASM\p18cxxx.inc
                                             ENDIF                                                                          C:\MCC18\MPASM\p18cxxx.inc
                                             IFDEF __18F4680                                                                C:\MCC18\MPASM\p18cxxx.inc
                                                INCLUDE <P18F4680.INC>                                                      C:\MCC18\MPASM\p18cxxx.inc
                                             ENDIF                                                                          C:\MCC18\MPASM\p18cxxx.inc
                                             IFDEF __18F4681                                                                C:\MCC18\MPASM\p18cxxx.inc
                                                INCLUDE <P18F4681.INC>                                                      C:\MCC18\MPASM\p18cxxx.inc
                                             ENDIF                                                                          C:\MCC18\MPASM\p18cxxx.inc
                                             IFDEF __18F2510                                                                C:\MCC18\MPASM\p18cxxx.inc
                                                INCLUDE <P18F2510.INC>                                                      C:\MCC18\MPASM\p18cxxx.inc
                                             ENDIF                                                                          C:\MCC18\MPASM\p18cxxx.inc
                                             IFDEF __18F2520                                                                C:\MCC18\MPASM\p18cxxx.inc
                                                INCLUDE <P18F2520.INC>                                                      C:\MCC18\MPASM\p18cxxx.inc
                                             ENDIF                                                                          C:\MCC18\MPASM\p18cxxx.inc
                                             IFDEF __18F4510                                                                C:\MCC18\MPASM\p18cxxx.inc
                                                INCLUDE <P18F4510.INC>                                                      C:\MCC18\MPASM\p18cxxx.inc
                                             ENDIF                                                                          C:\MCC18\MPASM\p18cxxx.inc
                                             IFDEF __18F4520                                                                C:\MCC18\MPASM\p18cxxx.inc
                                                INCLUDE <P18F4520.INC>                                                      C:\MCC18\MPASM\p18cxxx.inc
                                             ENDIF                                                                          C:\MCC18\MPASM\p18cxxx.inc
                                             IFDEF __18F2455                                                                C:\MCC18\MPASM\p18cxxx.inc
                                                INCLUDE <P18F2455.INC>                                                      C:\MCC18\MPASM\p18cxxx.inc
                                             ENDIF                                                                          C:\MCC18\MPASM\p18cxxx.inc
                                             IFDEF __18F2550                                                                C:\MCC18\MPASM\p18cxxx.inc
                                                INCLUDE <P18F2550.INC>                                                      C:\MCC18\MPASM\p18cxxx.inc
                                             ENDIF                                                                          C:\MCC18\MPASM\p18cxxx.inc
                                             IFDEF __18F4455                                                                C:\MCC18\MPASM\p18cxxx.inc
                                                INCLUDE <P18F4455.INC>                                                      C:\MCC18\MPASM\p18cxxx.inc
                                             ENDIF                                                                          C:\MCC18\MPASM\p18cxxx.inc
                                             IFDEF __18F4550                                                                C:\MCC18\MPASM\p18cxxx.inc
                                                INCLUDE <P18F4550.INC>                                                      C:\MCC18\MPASM\p18cxxx.inc
                                             ENDIF                                                                          C:\MCC18\MPASM\p18cxxx.inc
                                             IFDEF __18F2410                                                                C:\MCC18\MPASM\p18cxxx.inc
                                                INCLUDE <P18F2410.INC>                                                      C:\MCC18\MPASM\p18cxxx.inc
                                             ENDIF                                                                          C:\MCC18\MPASM\p18cxxx.inc
                                             IFDEF __18F2420                                                                C:\MCC18\MPASM\p18cxxx.inc
                                                INCLUDE <P18F2420.INC>                                                      C:\MCC18\MPASM\p18cxxx.inc
                                             ENDIF                                                                          C:\MCC18\MPASM\p18cxxx.inc
                                             IFDEF __18F4410                                                                C:\MCC18\MPASM\p18cxxx.inc
                                                INCLUDE <P18F4410.INC>                                                      C:\MCC18\MPASM\p18cxxx.inc
                                             ENDIF                                                                          C:\MCC18\MPASM\p18cxxx.inc
                                             IFDEF __18F4420                                                                C:\MCC18\MPASM\p18cxxx.inc
                                                INCLUDE <P18F4420.INC>                                                      C:\MCC18\MPASM\p18cxxx.inc
                                             ENDIF                                                                          C:\MCC18\MPASM\p18cxxx.inc
                                             IFDEF __18F2480                                                                C:\MCC18\MPASM\p18cxxx.inc
                                                INCLUDE <P18F2480.INC>                                                      C:\MCC18\MPASM\p18cxxx.inc
                                             ENDIF                                                                          C:\MCC18\MPASM\p18cxxx.inc
                                             IFDEF __18F2580                                                                C:\MCC18\MPASM\p18cxxx.inc
                                                INCLUDE <P18F2580.INC>                                                      C:\MCC18\MPASM\p18cxxx.inc
                                             ENDIF                                                                          C:\MCC18\MPASM\p18cxxx.inc
                                             IFDEF __18F4480                                                                C:\MCC18\MPASM\p18cxxx.inc
                                                INCLUDE <P18F4480.INC>                                                      C:\MCC18\MPASM\p18cxxx.inc
                                             ENDIF                                                                          C:\MCC18\MPASM\p18cxxx.inc
                                             IFDEF __18F4580                                                                C:\MCC18\MPASM\p18cxxx.inc
                                                INCLUDE <P18F4580.INC>                                                      C:\MCC18\MPASM\p18cxxx.inc
                                             ENDIF                                                                          C:\MCC18\MPASM\p18cxxx.inc
                                             IFDEF __18F6310                                                                C:\MCC18\MPASM\p18cxxx.inc
                                                INCLUDE <P18F6310.INC>                                                      C:\MCC18\MPASM\p18cxxx.inc
                                             ENDIF                                                                          C:\MCC18\MPASM\p18cxxx.inc
                                             IFDEF __18F6390                                                                C:\MCC18\MPASM\p18cxxx.inc
                                                INCLUDE <P18F6390.INC>                                                      C:\MCC18\MPASM\p18cxxx.inc
                                             ENDIF                                                                          C:\MCC18\MPASM\p18cxxx.inc
                                             IFDEF __18F8310                                                                C:\MCC18\MPASM\p18cxxx.inc
                                                INCLUDE <P18F8310.INC>                                                      C:\MCC18\MPASM\p18cxxx.inc
                                             ENDIF                                                                          C:\MCC18\MPASM\p18cxxx.inc
                                             IFDEF __18F8390                                                                C:\MCC18\MPASM\p18cxxx.inc
                                                INCLUDE <P18F8390.INC>                                                      C:\MCC18\MPASM\p18cxxx.inc
                                             ENDIF                                                                          C:\MCC18\MPASM\p18cxxx.inc
                                             IFDEF __18F6627                                                                C:\MCC18\MPASM\p18cxxx.inc
                                                INCLUDE <P18F6627.INC>                                                      C:\MCC18\MPASM\p18cxxx.inc
                                             ENDIF                                                                          C:\MCC18\MPASM\p18cxxx.inc
                                             IFDEF __18F6722                                                                C:\MCC18\MPASM\p18cxxx.inc
                                                INCLUDE <P18F6722.INC>                                                      C:\MCC18\MPASM\p18cxxx.inc
                                             ENDIF                                                                          C:\MCC18\MPASM\p18cxxx.inc
                                             IFDEF __18F8627                                                                C:\MCC18\MPASM\p18cxxx.inc
                                                INCLUDE <P18F8627.INC>                                                      C:\MCC18\MPASM\p18cxxx.inc
                                             ENDIF                                                                          C:\MCC18\MPASM\p18cxxx.inc
                                             IFDEF __18F8722                                                                C:\MCC18\MPASM\p18cxxx.inc
                                                INCLUDE <P18F8722.INC>                                                      C:\MCC18\MPASM\p18cxxx.inc
                                             ENDIF                                                                          C:\MCC18\MPASM\p18cxxx.inc
                                             IFDEF __18F65J10                                                               C:\MCC18\MPASM\p18cxxx.inc
                                                INCLUDE <P18F65J10.INC>                                                     C:\MCC18\MPASM\p18cxxx.inc
                                             ENDIF                                                                          C:\MCC18\MPASM\p18cxxx.inc
                                             IFDEF __18F65J15                                                               C:\MCC18\MPASM\p18cxxx.inc
                                                INCLUDE <P18F65J15.INC>                                                     C:\MCC18\MPASM\p18cxxx.inc
                                             ENDIF                                                                          C:\MCC18\MPASM\p18cxxx.inc
                                             IFDEF __18F66J10                                                               C:\MCC18\MPASM\p18cxxx.inc
                                                INCLUDE <P18F66J10.INC>                                                     C:\MCC18\MPASM\p18cxxx.inc
                                             ENDIF                                                                          C:\MCC18\MPASM\p18cxxx.inc
                                             IFDEF __18F66J15                                                               C:\MCC18\MPASM\p18cxxx.inc
                                                INCLUDE <P18F66J15.INC>                                                     C:\MCC18\MPASM\p18cxxx.inc
                                             ENDIF                                                                          C:\MCC18\MPASM\p18cxxx.inc
                                             IFDEF __18F67J10                                                               C:\MCC18\MPASM\p18cxxx.inc
                                                INCLUDE <P18F67J10.INC>                                                     C:\MCC18\MPASM\p18cxxx.inc
                                             ENDIF                                                                          C:\MCC18\MPASM\p18cxxx.inc
                                             IFDEF __18F85J10                                                               C:\MCC18\MPASM\p18cxxx.inc
                                                INCLUDE <P18F85J10.INC>                                                     C:\MCC18\MPASM\p18cxxx.inc
                                             ENDIF                                                                          C:\MCC18\MPASM\p18cxxx.inc
                                             IFDEF __18F85J15                                                               C:\MCC18\MPASM\p18cxxx.inc
                                                INCLUDE <P18F85J15.INC>                                                     C:\MCC18\MPASM\p18cxxx.inc
                                             ENDIF                                                                          C:\MCC18\MPASM\p18cxxx.inc
                                             IFDEF __18F86J10                                                               C:\MCC18\MPASM\p18cxxx.inc
                                                INCLUDE <P18F86J10.INC>                                                     C:\MCC18\MPASM\p18cxxx.inc
                                             ENDIF                                                                          C:\MCC18\MPASM\p18cxxx.inc
                                             IFDEF __18F86J15                                                               C:\MCC18\MPASM\p18cxxx.inc
                                                INCLUDE <P18F86J15.INC>                                                     C:\MCC18\MPASM\p18cxxx.inc
                                             ENDIF                                                                          C:\MCC18\MPASM\p18cxxx.inc
                                             IFDEF __18F87J10                                                               C:\MCC18\MPASM\p18cxxx.inc
                                                INCLUDE <P18F87J10.INC>                                                     C:\MCC18\MPASM\p18cxxx.inc
                                             ENDIF                                                                          C:\MCC18\MPASM\p18cxxx.inc
                                             IFDEF __18F6527                                                                C:\MCC18\MPASM\p18cxxx.inc
                                                INCLUDE <P18F6527.INC>                                                      C:\MCC18\MPASM\p18cxxx.inc
                                             ENDIF                                                                          C:\MCC18\MPASM\p18cxxx.inc
                                             IFDEF __18F6622                                                                C:\MCC18\MPASM\p18cxxx.inc
                                                INCLUDE <P18F6622.INC>                                                      C:\MCC18\MPASM\p18cxxx.inc
                                             ENDIF                                                                          C:\MCC18\MPASM\p18cxxx.inc
                                             IFDEF __18F8527                                                                C:\MCC18\MPASM\p18cxxx.inc
                                                INCLUDE <P18F8527.INC>                                                      C:\MCC18\MPASM\p18cxxx.inc
                                             ENDIF                                                                          C:\MCC18\MPASM\p18cxxx.inc
                                             IFDEF __18F8622                                                                C:\MCC18\MPASM\p18cxxx.inc
                                                INCLUDE <P18F8622.INC>                                                      C:\MCC18\MPASM\p18cxxx.inc
                                             ENDIF                                                                          C:\MCC18\MPASM\p18cxxx.inc
                                             IFDEF __18F24J10                                                               C:\MCC18\MPASM\p18cxxx.inc
                                                INCLUDE <P18F24J10.INC>                                                     C:\MCC18\MPASM\p18cxxx.inc
                                             ENDIF                                                                          C:\MCC18\MPASM\p18cxxx.inc
                                             IFDEF __18F25J10                                                               C:\MCC18\MPASM\p18cxxx.inc
                                                INCLUDE <P18F25J10.INC>                                                     C:\MCC18\MPASM\p18cxxx.inc
                                             ENDIF                                                                          C:\MCC18\MPASM\p18cxxx.inc
                                             IFDEF __18F44J10                                                               C:\MCC18\MPASM\p18cxxx.inc
                                                INCLUDE <P18F44J10.INC>                                                     C:\MCC18\MPASM\p18cxxx.inc
                                             ENDIF                                                                          C:\MCC18\MPASM\p18cxxx.inc
                                             IFDEF __18F45J10                                                               C:\MCC18\MPASM\p18cxxx.inc
                                                INCLUDE <P18F45J10.INC>                                                     C:\MCC18\MPASM\p18cxxx.inc
                                             ENDIF                                                                          C:\MCC18\MPASM\p18cxxx.inc
                                             IFDEF __18F2221                                                                C:\MCC18\MPASM\p18cxxx.inc
                                                INCLUDE <P18F2221.INC>                                                      C:\MCC18\MPASM\p18cxxx.inc
                                             ENDIF                                                                          C:\MCC18\MPASM\p18cxxx.inc
                                             IFDEF __18F2321                                                                C:\MCC18\MPASM\p18cxxx.inc
                                                INCLUDE <P18F2321.INC>                                                      C:\MCC18\MPASM\p18cxxx.inc
                                             ENDIF                                                                          C:\MCC18\MPASM\p18cxxx.inc
                                             IFDEF __18F4221                                                                C:\MCC18\MPASM\p18cxxx.inc
                                                INCLUDE <P18F4221.INC>                                                      C:\MCC18\MPASM\p18cxxx.inc
                                             ENDIF                                                                          C:\MCC18\MPASM\p18cxxx.inc
                                             IFDEF __18F4321                                                                C:\MCC18\MPASM\p18cxxx.inc
                                                INCLUDE <P18F4321.INC>                                                      C:\MCC18\MPASM\p18cxxx.inc
                                             ENDIF                                                                          C:\MCC18\MPASM\p18cxxx.inc
                                             IFDEF __18F97J60                                                               C:\MCC18\MPASM\p18cxxx.inc
                                                INCLUDE <P18F97J60.INC>                                                     C:\MCC18\MPASM\p18cxxx.inc
                                             ENDIF                                                                          C:\MCC18\MPASM\p18cxxx.inc
                                             IFDEF __18F96J65                                                               C:\MCC18\MPASM\p18cxxx.inc
                                                INCLUDE <P18F96J65.INC>                                                     C:\MCC18\MPASM\p18cxxx.inc
                                             ENDIF                                                                          C:\MCC18\MPASM\p18cxxx.inc
                                             IFDEF __18F96J60                                                               C:\MCC18\MPASM\p18cxxx.inc
                                                INCLUDE <P18F96J60.INC>                                                     C:\MCC18\MPASM\p18cxxx.inc
                                             ENDIF                                                                          C:\MCC18\MPASM\p18cxxx.inc
                                             IFDEF __18F87J60                                                               C:\MCC18\MPASM\p18cxxx.inc
                                                INCLUDE <P18F87J60.INC>                                                     C:\MCC18\MPASM\p18cxxx.inc
                                             ENDIF                                                                          C:\MCC18\MPASM\p18cxxx.inc
                                             IFDEF __18F86J65                                                               C:\MCC18\MPASM\p18cxxx.inc
                                                INCLUDE <P18F86J65.INC>                                                     C:\MCC18\MPASM\p18cxxx.inc
                                             ENDIF                                                                          C:\MCC18\MPASM\p18cxxx.inc
                                             IFDEF __18F86J60                                                               C:\MCC18\MPASM\p18cxxx.inc
                                                INCLUDE <P18F86J60.INC>                                                     C:\MCC18\MPASM\p18cxxx.inc
                                             ENDIF                                                                          C:\MCC18\MPASM\p18cxxx.inc
                                             IFDEF __18F67J60                                                               C:\MCC18\MPASM\p18cxxx.inc
                                                INCLUDE <P18F67J60.INC>                                                     C:\MCC18\MPASM\p18cxxx.inc
                                             ENDIF                                                                          C:\MCC18\MPASM\p18cxxx.inc
                                             IFDEF __18F66J65                                                               C:\MCC18\MPASM\p18cxxx.inc
                                                INCLUDE <P18F66J65.INC>                                                     C:\MCC18\MPASM\p18cxxx.inc
                                             ENDIF                                                                          C:\MCC18\MPASM\p18cxxx.inc
                                             IFDEF __18F66J60                                                               C:\MCC18\MPASM\p18cxxx.inc
                                                INCLUDE <P18F66J60.INC>                                                     C:\MCC18\MPASM\p18cxxx.inc
                                             ENDIF                                                                          C:\MCC18\MPASM\p18cxxx.inc
                                             IFDEF __18F1331                                                                C:\MCC18\MPASM\p18cxxx.inc
                                                INCLUDE <P18F1331.INC>                                                      C:\MCC18\MPASM\p18cxxx.inc
                                             ENDIF                                                                          C:\MCC18\MPASM\p18cxxx.inc
                                             IFDEF __18F1330                                                                C:\MCC18\MPASM\p18cxxx.inc
                                                INCLUDE <P18F1330.INC>                                                      C:\MCC18\MPASM\p18cxxx.inc
                                             ENDIF                                                                          C:\MCC18\MPASM\p18cxxx.inc
                                             IFDEF __18F1231                                                                C:\MCC18\MPASM\p18cxxx.inc
                                                INCLUDE <P18F1231.INC>                                                      C:\MCC18\MPASM\p18cxxx.inc
                                             ENDIF                                                                          C:\MCC18\MPASM\p18cxxx.inc
                                             IFDEF __18F1230                                                                C:\MCC18\MPASM\p18cxxx.inc
                                                INCLUDE <P18F1230.INC>                                                      C:\MCC18\MPASM\p18cxxx.inc
                                             ENDIF                                                                          C:\MCC18\MPASM\p18cxxx.inc
                                             IFDEF __18F4450                                                                C:\MCC18\MPASM\p18cxxx.inc
                                                INCLUDE <P18F4450.INC>                                                      C:\MCC18\MPASM\p18cxxx.inc
                                             ENDIF                                                                          C:\MCC18\MPASM\p18cxxx.inc
                                             IFDEF __18F2450                                                                C:\MCC18\MPASM\p18cxxx.inc
                                                INCLUDE <P18F2450.INC>                                                      C:\MCC18\MPASM\p18cxxx.inc
                                             ENDIF                                                                          C:\MCC18\MPASM\p18cxxx.inc
                                             IFDEF __18F4523                                                                C:\MCC18\MPASM\p18cxxx.inc
                                                INCLUDE <P18F4523.INC>                                                      C:\MCC18\MPASM\p18cxxx.inc
                                             ENDIF                                                                          C:\MCC18\MPASM\p18cxxx.inc
                                             IFDEF __18F4423                                                                C:\MCC18\MPASM\p18cxxx.inc
                                                INCLUDE <P18F4423.INC>                                                      C:\MCC18\MPASM\p18cxxx.inc
                                             ENDIF                                                                          C:\MCC18\MPASM\p18cxxx.inc
                                             IFDEF __18F2523                                                                C:\MCC18\MPASM\p18cxxx.inc
                                                INCLUDE <P18F2523.INC>                                                      C:\MCC18\MPASM\p18cxxx.inc
                                             ENDIF                                                                          C:\MCC18\MPASM\p18cxxx.inc
                                             IFDEF __18F2423                                                                C:\MCC18\MPASM\p18cxxx.inc
                                                INCLUDE <P18F2423.INC>                                                      C:\MCC18\MPASM\p18cxxx.inc
                                             ENDIF                                                                          C:\MCC18\MPASM\p18cxxx.inc
                                             IFDEF __18F85J90                                                               C:\MCC18\MPASM\p18cxxx.inc
                                                INCLUDE <P18F85J90.INC>                                                     C:\MCC18\MPASM\p18cxxx.inc
                                             ENDIF                                                                          C:\MCC18\MPASM\p18cxxx.inc
                                             IFDEF __18F84J90                                                               C:\MCC18\MPASM\p18cxxx.inc
                                                INCLUDE <P18F84J90.INC>                                                     C:\MCC18\MPASM\p18cxxx.inc
                                             ENDIF                                                                          C:\MCC18\MPASM\p18cxxx.inc
                                             IFDEF __18F83J90                                                               C:\MCC18\MPASM\p18cxxx.inc
                                                INCLUDE <P18F83J90.INC>                                                     C:\MCC18\MPASM\p18cxxx.inc
                                             ENDIF                                                                          C:\MCC18\MPASM\p18cxxx.inc
                                             IFDEF __18F65J90                                                               C:\MCC18\MPASM\p18cxxx.inc
                                                INCLUDE <P18F65J90.INC>                                                     C:\MCC18\MPASM\p18cxxx.inc
                                             ENDIF                                                                          C:\MCC18\MPASM\p18cxxx.inc
                                             IFDEF __18F64J90                                                               C:\MCC18\MPASM\p18cxxx.inc
                                                INCLUDE <P18F64J90.INC>                                                     C:\MCC18\MPASM\p18cxxx.inc
                                             ENDIF                                                                          C:\MCC18\MPASM\p18cxxx.inc
                                             IFDEF __18F63J90                                                               C:\MCC18\MPASM\p18cxxx.inc
                                                INCLUDE <P18F63J90.INC>                                                     C:\MCC18\MPASM\p18cxxx.inc
                                             ENDIF                                                                          C:\MCC18\MPASM\p18cxxx.inc
                                             IFDEF __18F45K20                                                               C:\MCC18\MPASM\p18cxxx.inc
                                                INCLUDE <P18F45K20.INC>                                                     C:\MCC18\MPASM\p18cxxx.inc
                                             ENDIF                                                                          C:\MCC18\MPASM\p18cxxx.inc
                                             IFDEF __18F25K20                                                               C:\MCC18\MPASM\p18cxxx.inc
                                                INCLUDE <P18F25K20.INC>                                                     C:\MCC18\MPASM\p18cxxx.inc
                                             ENDIF                                                                          C:\MCC18\MPASM\p18cxxx.inc
                                             IFDEF __18F4685                                                                C:\MCC18\MPASM\p18cxxx.inc
                                                INCLUDE <P18F4685.INC>                                                      C:\MCC18\MPASM\p18cxxx.inc
                                             ENDIF                                                                          C:\MCC18\MPASM\p18cxxx.inc
                                             IFDEF __18F2685                                                                C:\MCC18\MPASM\p18cxxx.inc
                                                INCLUDE <P18F2685.INC>                                                      C:\MCC18\MPASM\p18cxxx.inc
                                             ENDIF                                                                          C:\MCC18\MPASM\p18cxxx.inc
                                             IFDEF __18F85J11                                                               C:\MCC18\MPASM\p18cxxx.inc
                                                INCLUDE <P18F85J11.INC>                                                     C:\MCC18\MPASM\p18cxxx.inc
                                             ENDIF                                                                          C:\MCC18\MPASM\p18cxxx.inc
                                             IFDEF __18F84J11                                                               C:\MCC18\MPASM\p18cxxx.inc
                                                INCLUDE <P18F84J11.INC>                                                     C:\MCC18\MPASM\p18cxxx.inc
                                             ENDIF                                                                          C:\MCC18\MPASM\p18cxxx.inc
                                             IFDEF __18F83J11                                                               C:\MCC18\MPASM\p18cxxx.inc
                                                INCLUDE <P18F83J11.INC>                                                     C:\MCC18\MPASM\p18cxxx.inc
                                             ENDIF                                                                          C:\MCC18\MPASM\p18cxxx.inc
                                             IFDEF __18F65J11                                                               C:\MCC18\MPASM\p18cxxx.inc
                                                INCLUDE <P18F65J11.INC>                                                     C:\MCC18\MPASM\p18cxxx.inc
                                             ENDIF                                                                          C:\MCC18\MPASM\p18cxxx.inc
                                             IFDEF __18F64J11                                                               C:\MCC18\MPASM\p18cxxx.inc
                                                INCLUDE <P18F64J11.INC>                                                     C:\MCC18\MPASM\p18cxxx.inc
                                             ENDIF                                                                          C:\MCC18\MPASM\p18cxxx.inc
                                             IFDEF __18F63J11                                                               C:\MCC18\MPASM\p18cxxx.inc
                                                INCLUDE <P18F63J11.INC>                                                     C:\MCC18\MPASM\p18cxxx.inc
                                             ENDIF                                                                          C:\MCC18\MPASM\p18cxxx.inc
                                             IFDEF __18F4682                                                                C:\MCC18\MPASM\p18cxxx.inc
                                                INCLUDE <P18F4682.INC>                                                      C:\MCC18\MPASM\p18cxxx.inc
                                             ENDIF                                                                          C:\MCC18\MPASM\p18cxxx.inc
                                             IFDEF __18F2682                                                                C:\MCC18\MPASM\p18cxxx.inc
                                                INCLUDE <P18F2682.INC>                                                      C:\MCC18\MPASM\p18cxxx.inc
                                             ENDIF                                                                          C:\MCC18\MPASM\p18cxxx.inc
                                             IFDEF __18F87J50                                                               C:\MCC18\MPASM\p18cxxx.inc
                                                INCLUDE <P18F87J50.INC>                                                     C:\MCC18\MPASM\p18cxxx.inc
                                             ENDIF                                                                          C:\MCC18\MPASM\p18cxxx.inc
                                             IFDEF __18F86J55                                                               C:\MCC18\MPASM\p18cxxx.inc
                                                INCLUDE <P18F86J55.INC>                                                     C:\MCC18\MPASM\p18cxxx.inc
                                             ENDIF                                                                          C:\MCC18\MPASM\p18cxxx.inc
                                             IFDEF __18F86J50                                                               C:\MCC18\MPASM\p18cxxx.inc
                                                INCLUDE <P18F86J50.INC>                                                     C:\MCC18\MPASM\p18cxxx.inc
                                             ENDIF                                                                          C:\MCC18\MPASM\p18cxxx.inc
                                             IFDEF __18F85J50                                                               C:\MCC18\MPASM\p18cxxx.inc
                                                INCLUDE <P18F85J50.INC>                                                     C:\MCC18\MPASM\p18cxxx.inc
                                             ENDIF                                                                          C:\MCC18\MPASM\p18cxxx.inc
                                             IFDEF __18F67J50                                                               C:\MCC18\MPASM\p18cxxx.inc
                                                INCLUDE <P18F67J50.INC>                                                     C:\MCC18\MPASM\p18cxxx.inc
                                             ENDIF                                                                          C:\MCC18\MPASM\p18cxxx.inc
                                             IFDEF __18F66J55                                                               C:\MCC18\MPASM\p18cxxx.inc
                                                INCLUDE <P18F66J55.INC>                                                     C:\MCC18\MPASM\p18cxxx.inc
                                             ENDIF                                                                          C:\MCC18\MPASM\p18cxxx.inc
                                             IFDEF __18F66J50                                                               C:\MCC18\MPASM\p18cxxx.inc
                                                INCLUDE <P18F66J50.INC>                                                     C:\MCC18\MPASM\p18cxxx.inc
                                             ENDIF                                                                          C:\MCC18\MPASM\p18cxxx.inc
                                             IFDEF __18F65J50                                                               C:\MCC18\MPASM\p18cxxx.inc
                                                INCLUDE <P18F65J50.INC>                                                     C:\MCC18\MPASM\p18cxxx.inc
                                             ENDIF                                                                          C:\MCC18\MPASM\p18cxxx.inc
                                             IFDEF __18F87J11                                                               C:\MCC18\MPASM\p18cxxx.inc
                                                INCLUDE <P18F87J11.INC>                                                     C:\MCC18\MPASM\p18cxxx.inc
                                             ENDIF                                                                          C:\MCC18\MPASM\p18cxxx.inc
                                             IFDEF __18F86J16                                                               C:\MCC18\MPASM\p18cxxx.inc
                                                INCLUDE <P18F86J16.INC>                                                     C:\MCC18\MPASM\p18cxxx.inc
                                             ENDIF                                                                          C:\MCC18\MPASM\p18cxxx.inc
                                             IFDEF __18F86J11                                                               C:\MCC18\MPASM\p18cxxx.inc
                                                INCLUDE <P18F86J11.INC>                                                     C:\MCC18\MPASM\p18cxxx.inc
                                             ENDIF                                                                          C:\MCC18\MPASM\p18cxxx.inc
                                             IFDEF __18F67J11                                                               C:\MCC18\MPASM\p18cxxx.inc
                                                INCLUDE <P18F67J11.INC>                                                     C:\MCC18\MPASM\p18cxxx.inc
                                             ENDIF                                                                          C:\MCC18\MPASM\p18cxxx.inc
                                             IFDEF __18F66J16                                                               C:\MCC18\MPASM\p18cxxx.inc
                                                INCLUDE <P18F66J16.INC>                                                     C:\MCC18\MPASM\p18cxxx.inc
                                             ENDIF                                                                          C:\MCC18\MPASM\p18cxxx.inc
                                             IFDEF __18F66J11                                                               C:\MCC18\MPASM\p18cxxx.inc
                                                INCLUDE <P18F66J11.INC>                                                     C:\MCC18\MPASM\p18cxxx.inc
                                             ENDIF                                                                          C:\MCC18\MPASM\p18cxxx.inc
                                             IFDEF __18F44K20                                                               C:\MCC18\MPASM\p18cxxx.inc
                                                INCLUDE <P18F44K20.INC>                                                     C:\MCC18\MPASM\p18cxxx.inc
                                             ENDIF                                                                          C:\MCC18\MPASM\p18cxxx.inc
                                             IFDEF __18F24K20                                                               C:\MCC18\MPASM\p18cxxx.inc
                                                INCLUDE <P18F24K20.INC>                                                     C:\MCC18\MPASM\p18cxxx.inc
                                             ENDIF                                                                          C:\MCC18\MPASM\p18cxxx.inc
                                             IFDEF __18F2458                                                                C:\MCC18\MPASM\p18cxxx.inc
                                                INCLUDE <P18F2458.INC>                                                      C:\MCC18\MPASM\p18cxxx.inc
                                             ENDIF                                                                          C:\MCC18\MPASM\p18cxxx.inc
                                             IFDEF __18F2553                                                                C:\MCC18\MPASM\p18cxxx.inc
                                                INCLUDE <P18F2553.INC>                                                      C:\MCC18\MPASM\p18cxxx.inc
                                             ENDIF                                                                          C:\MCC18\MPASM\p18cxxx.inc
                                             IFDEF __18F4458                                                                C:\MCC18\MPASM\p18cxxx.inc
                                                INCLUDE <P18F4458.INC>                                                      C:\MCC18\MPASM\p18cxxx.inc
                                             ENDIF                                                                          C:\MCC18\MPASM\p18cxxx.inc
                                             IFDEF __18F4553                                                                C:\MCC18\MPASM\p18cxxx.inc
                                                INCLUDE <P18F4553.INC>                                                      C:\MCC18\MPASM\p18cxxx.inc
                                             ENDIF                                                                          C:\MCC18\MPASM\p18cxxx.inc
                                                                                                                            C:\MCC18\MPASM\p18cxxx.inc
                                                                                                                            C:\MCC18\SRC\TRADIT~1\DELAYS\d100tcyx.asm
                                           ;/**********************************************************************         C:\MCC18\SRC\TRADIT~1\DELAYS\d100tcyx.asm
                                           ;*      Function Name:  Delay100TCYx                                   *         C:\MCC18\SRC\TRADIT~1\DELAYS\d100tcyx.asm
                                           ;*      Return Value:   void                                           *         C:\MCC18\SRC\TRADIT~1\DELAYS\d100tcyx.asm
                                           ;*      Parameters:     unit:                                          *         C:\MCC18\SRC\TRADIT~1\DELAYS\d100tcyx.asm
                                           ;*      Description:    This routine delays for multiples of 100       *         C:\MCC18\SRC\TRADIT~1\DELAYS\d100tcyx.asm
                                           ;*                      instruction cycles that is specified in unit.  *         C:\MCC18\SRC\TRADIT~1\DELAYS\d100tcyx.asm
                                           ;*      Special Note:   This routine provides multiples of 100 Tcy.    *         C:\MCC18\SRC\TRADIT~1\DELAYS\d100tcyx.asm
                                           ;*                      A value of 1 to 255 provides 100 to 25500 Tcy  *         C:\MCC18\SRC\TRADIT~1\DELAYS\d100tcyx.asm
                                           ;*                      delay.  A value of 0 will provide a delay of   *         C:\MCC18\SRC\TRADIT~1\DELAYS\d100tcyx.asm
                                           ;*                      25600 Tcy.                                     *         C:\MCC18\SRC\TRADIT~1\DELAYS\d100tcyx.asm
                                           ;**********************************************************************/         C:\MCC18\SRC\TRADIT~1\DELAYS\d100tcyx.asm
                                                   EXTERN  DelayCounter1                                                    C:\MCC18\SRC\TRADIT~1\DELAYS\d100tcyx.asm
                                                                                                                            C:\MCC18\SRC\TRADIT~1\DELAYS\d100tcyx.asm
                                           D100TCYXCODE    CODE                                                             C:\MCC18\SRC\TRADIT~1\DELAYS\d100tcyx.asm
                                                                                                                            C:\MCC18\SRC\TRADIT~1\DELAYS\d100tcyx.asm
                                           Delay100TCYx                                                                     C:\MCC18\SRC\TRADIT~1\DELAYS\d100tcyx.asm
00069c   0eff     MOVLW     0xff                   movlw   0xff                                                             C:\MCC18\SRC\TRADIT~1\DELAYS\d100tcyx.asm
00069e   50e3     MOVF      0xe3,0x0,0x0           movf    PLUSW1,0                                                         C:\MCC18\SRC\TRADIT~1\DELAYS\d100tcyx.asm
0006a0   6e04     MOVWF     0x4,0x0                movwf   DelayCounter1                                                    C:\MCC18\SRC\TRADIT~1\DELAYS\d100tcyx.asm
0006a2   0e1b     MOVLW     0x1b                   movlw   0x1b                                                             C:\MCC18\SRC\TRADIT~1\DELAYS\d100tcyx.asm
0006a4   d000     BRA       0x6a6          	bra     $+2                                                                     C:\MCC18\SRC\TRADIT~1\DELAYS\d100tcyx.asm
0006a6   d001     BRA       0x6aa                  bra     D100_1                                                           C:\MCC18\SRC\TRADIT~1\DELAYS\d100tcyx.asm
                                                                                                                            C:\MCC18\SRC\TRADIT~1\DELAYS\d100tcyx.asm
                                           D100x                                                                            C:\MCC18\SRC\TRADIT~1\DELAYS\d100tcyx.asm
0006a8   0e20     MOVLW     0x20                   movlw   0x20                                                             C:\MCC18\SRC\TRADIT~1\DELAYS\d100tcyx.asm
                                           D100_1                                                                           C:\MCC18\SRC\TRADIT~1\DELAYS\d100tcyx.asm
0006aa   6ee7     MOVWF     0xe7,0x0               movwf   INDF1                                                            C:\MCC18\SRC\TRADIT~1\DELAYS\d100tcyx.asm
0006ac   2ee7     DECFSZ    0xe7,0x1,0x0           decfsz  INDF1,1                                                          C:\MCC18\SRC\TRADIT~1\DELAYS\d100tcyx.asm
0006ae   d7fe     BRA       0x6ac                  bra     $-2                                                              C:\MCC18\SRC\TRADIT~1\DELAYS\d100tcyx.asm
0006b0   2e04     DECFSZ    0x4,0x1,0x0            decfsz  DelayCounter1,1                                                  C:\MCC18\SRC\TRADIT~1\DELAYS\d100tcyx.asm
0006b2   d7fa     BRA       0x6a8                  bra     D100x                                                            C:\MCC18\SRC\TRADIT~1\DELAYS\d100tcyx.asm
0006b4   d000     BRA       0x6b6                  bra     $+2                                                              C:\MCC18\SRC\TRADIT~1\DELAYS\d100tcyx.asm
0006b6   0012     RETURN    0x0                    return                                                                   C:\MCC18\SRC\TRADIT~1\DELAYS\d100tcyx.asm
                                                                                                                            C:\MCC18\SRC\TRADIT~1\DELAYS\d100tcyx.asm
                                                   GLOBAL  Delay100TCYx                                                     C:\MCC18\SRC\TRADIT~1\DELAYS\d100tcyx.asm
                                                                                                                            C:\MCC18\SRC\TRADIT~1\DELAYS\d100tcyx.asm
                                                   END                                                                      C:\MCC18\SRC\TRADIT~1\DELAYS\d100tcyx.asm
                                           #include "p18cxxx.inc"                                                           C:\MCC18\SRC\TRADIT~1\DELAYS\d1ktcyx.asm
                                                   LIST                                                                     C:\MCC18\MPASM\p18cxxx.inc
                                           ; P18CXXX.INC  Standard Header File, Version 1.00   Microchip Technology, Inc.   C:\MCC18\MPASM\p18cxxx.inc
                                                   LIST                                                                     C:\MCC18\MPASM\P18C452.INC
                                           ; P18C452.INC  Standard Header File, Version 0.12   Microchip Technology, Inc.   C:\MCC18\MPASM\P18C452.INC
                                                   LIST                                                                     C:\MCC18\MPASM\P18C452.INC
                                             ENDIF                                                                          C:\MCC18\MPASM\p18cxxx.inc
                                             IFDEF __18C242                                                                 C:\MCC18\MPASM\p18cxxx.inc
                                                INCLUDE <P18C242.INC>                                                       C:\MCC18\MPASM\p18cxxx.inc
                                             ENDIF                                                                          C:\MCC18\MPASM\p18cxxx.inc
                                             IFDEF __18F242                                                                 C:\MCC18\MPASM\p18cxxx.inc
                                                INCLUDE <P18F242.INC>                                                       C:\MCC18\MPASM\p18cxxx.inc
                                             ENDIF                                                                          C:\MCC18\MPASM\p18cxxx.inc
                                             IFDEF __18F248                                                                 C:\MCC18\MPASM\p18cxxx.inc
                                                INCLUDE <P18F248.INC>                                                       C:\MCC18\MPASM\p18cxxx.inc
                                             ENDIF                                                                          C:\MCC18\MPASM\p18cxxx.inc
                                             IFDEF __18C252                                                                 C:\MCC18\MPASM\p18cxxx.inc
                                                INCLUDE <P18C252.INC>                                                       C:\MCC18\MPASM\p18cxxx.inc
                                             ENDIF                                                                          C:\MCC18\MPASM\p18cxxx.inc
                                             IFDEF __18F252                                                                 C:\MCC18\MPASM\p18cxxx.inc
                                                INCLUDE <P18F252.INC>                                                       C:\MCC18\MPASM\p18cxxx.inc
                                             ENDIF                                                                          C:\MCC18\MPASM\p18cxxx.inc
                                             IFDEF __18F258                                                                 C:\MCC18\MPASM\p18cxxx.inc
                                                INCLUDE <P18F258.INC>                                                       C:\MCC18\MPASM\p18cxxx.inc
                                             ENDIF                                                                          C:\MCC18\MPASM\p18cxxx.inc
                                             IFDEF __18C442                                                                 C:\MCC18\MPASM\p18cxxx.inc
                                                INCLUDE <P18C442.INC>                                                       C:\MCC18\MPASM\p18cxxx.inc
                                             ENDIF                                                                          C:\MCC18\MPASM\p18cxxx.inc
                                             IFDEF __18F442                                                                 C:\MCC18\MPASM\p18cxxx.inc
                                                INCLUDE <P18F442.INC>                                                       C:\MCC18\MPASM\p18cxxx.inc
                                             ENDIF                                                                          C:\MCC18\MPASM\p18cxxx.inc
                                             IFDEF __18F448                                                                 C:\MCC18\MPASM\p18cxxx.inc
                                                INCLUDE <P18F448.INC>                                                       C:\MCC18\MPASM\p18cxxx.inc
                                             ENDIF                                                                          C:\MCC18\MPASM\p18cxxx.inc
                                             IFDEF __18C452                                                                 C:\MCC18\MPASM\p18cxxx.inc
                                                INCLUDE <P18C452.INC>                                                       C:\MCC18\MPASM\p18cxxx.inc
                                             ENDIF                                                                          C:\MCC18\MPASM\p18cxxx.inc
                                             IFDEF __18F452                                                                 C:\MCC18\MPASM\p18cxxx.inc
                                                INCLUDE <P18F452.INC>                                                       C:\MCC18\MPASM\p18cxxx.inc
                                             ENDIF                                                                          C:\MCC18\MPASM\p18cxxx.inc
                                             IFDEF __18F458                                                                 C:\MCC18\MPASM\p18cxxx.inc
                                                INCLUDE <P18F458.INC>                                                       C:\MCC18\MPASM\p18cxxx.inc
                                             ENDIF                                                                          C:\MCC18\MPASM\p18cxxx.inc
                                             IFDEF __18C601                                                                 C:\MCC18\MPASM\p18cxxx.inc
                                                INCLUDE <P18C601.INC>                                                       C:\MCC18\MPASM\p18cxxx.inc
                                             ENDIF                                                                          C:\MCC18\MPASM\p18cxxx.inc
                                             IFDEF __18C658                                                                 C:\MCC18\MPASM\p18cxxx.inc
                                                INCLUDE <P18C658.INC>                                                       C:\MCC18\MPASM\p18cxxx.inc
                                             ENDIF                                                                          C:\MCC18\MPASM\p18cxxx.inc
                                             IFDEF __18C801                                                                 C:\MCC18\MPASM\p18cxxx.inc
                                                INCLUDE <P18C801.INC>                                                       C:\MCC18\MPASM\p18cxxx.inc
                                             ENDIF                                                                          C:\MCC18\MPASM\p18cxxx.inc
                                             IFDEF __18C858                                                                 C:\MCC18\MPASM\p18cxxx.inc
                                                INCLUDE <P18C858.INC>                                                       C:\MCC18\MPASM\p18cxxx.inc
                                             ENDIF                                                                          C:\MCC18\MPASM\p18cxxx.inc
                                             IFDEF __18F1220                                                                C:\MCC18\MPASM\p18cxxx.inc
                                                INCLUDE <P18F1220.INC>                                                      C:\MCC18\MPASM\p18cxxx.inc
                                             ENDIF                                                                          C:\MCC18\MPASM\p18cxxx.inc
                                             IFDEF __18F1320                                                                C:\MCC18\MPASM\p18cxxx.inc
                                                INCLUDE <P18F1320.INC>                                                      C:\MCC18\MPASM\p18cxxx.inc
                                             ENDIF                                                                          C:\MCC18\MPASM\p18cxxx.inc
                                             IFDEF __18F2220                                                                C:\MCC18\MPASM\p18cxxx.inc
                                                INCLUDE <P18F2220.INC>                                                      C:\MCC18\MPASM\p18cxxx.inc
                                             ENDIF                                                                          C:\MCC18\MPASM\p18cxxx.inc
                                             IFDEF __18F2320                                                                C:\MCC18\MPASM\p18cxxx.inc
                                                INCLUDE <P18F2320.INC>                                                      C:\MCC18\MPASM\p18cxxx.inc
                                             ENDIF                                                                          C:\MCC18\MPASM\p18cxxx.inc
                                             IFDEF __18F4220                                                                C:\MCC18\MPASM\p18cxxx.inc
                                                INCLUDE <P18F4220.INC>                                                      C:\MCC18\MPASM\p18cxxx.inc
                                             ENDIF                                                                          C:\MCC18\MPASM\p18cxxx.inc
                                             IFDEF __18F4320                                                                C:\MCC18\MPASM\p18cxxx.inc
                                                INCLUDE <P18F4320.INC>                                                      C:\MCC18\MPASM\p18cxxx.inc
                                             ENDIF                                                                          C:\MCC18\MPASM\p18cxxx.inc
                                             IFDEF __18F6520                                                                C:\MCC18\MPASM\p18cxxx.inc
                                                INCLUDE <P18F6520.INC>                                                      C:\MCC18\MPASM\p18cxxx.inc
                                             ENDIF                                                                          C:\MCC18\MPASM\p18cxxx.inc
                                             IFDEF __18F6620                                                                C:\MCC18\MPASM\p18cxxx.inc
                                                INCLUDE <P18F6620.INC>                                                      C:\MCC18\MPASM\p18cxxx.inc
                                             ENDIF                                                                          C:\MCC18\MPASM\p18cxxx.inc
                                             IFDEF __18F6720                                                                C:\MCC18\MPASM\p18cxxx.inc
                                                INCLUDE <P18F6720.INC>                                                      C:\MCC18\MPASM\p18cxxx.inc
                                             ENDIF                                                                          C:\MCC18\MPASM\p18cxxx.inc
                                             IFDEF __18F8520                                                                C:\MCC18\MPASM\p18cxxx.inc
                                                INCLUDE <P18F8520.INC>                                                      C:\MCC18\MPASM\p18cxxx.inc
                                             ENDIF                                                                          C:\MCC18\MPASM\p18cxxx.inc
                                             IFDEF __18F8620                                                                C:\MCC18\MPASM\p18cxxx.inc
                                                INCLUDE <P18F8620.INC>                                                      C:\MCC18\MPASM\p18cxxx.inc
                                             ENDIF                                                                          C:\MCC18\MPASM\p18cxxx.inc
                                             IFDEF __18F8720                                                                C:\MCC18\MPASM\p18cxxx.inc
                                                INCLUDE <P18F8720.INC>                                                      C:\MCC18\MPASM\p18cxxx.inc
                                             ENDIF                                                                          C:\MCC18\MPASM\p18cxxx.inc
                                             IFDEF __18F2439                                                                C:\MCC18\MPASM\p18cxxx.inc
                                                INCLUDE <P18F2439.INC>                                                      C:\MCC18\MPASM\p18cxxx.inc
                                             ENDIF                                                                          C:\MCC18\MPASM\p18cxxx.inc
                                             IFDEF __18F2539                                                                C:\MCC18\MPASM\p18cxxx.inc
                                                INCLUDE <P18F2539.INC>                                                      C:\MCC18\MPASM\p18cxxx.inc
                                             ENDIF                                                                          C:\MCC18\MPASM\p18cxxx.inc
                                             IFDEF __18F4439                                                                C:\MCC18\MPASM\p18cxxx.inc
                                                INCLUDE <P18F4439.INC>                                                      C:\MCC18\MPASM\p18cxxx.inc
                                             ENDIF                                                                          C:\MCC18\MPASM\p18cxxx.inc
                                             IFDEF __18F4539                                                                C:\MCC18\MPASM\p18cxxx.inc
                                                INCLUDE <P18F4539.INC>                                                      C:\MCC18\MPASM\p18cxxx.inc
                                             ENDIF                                                                          C:\MCC18\MPASM\p18cxxx.inc
                                             IFDEF __18F8680                                                                C:\MCC18\MPASM\p18cxxx.inc
                                                INCLUDE <P18F8680.INC>                                                      C:\MCC18\MPASM\p18cxxx.inc
                                             ENDIF                                                                          C:\MCC18\MPASM\p18cxxx.inc
                                             IFDEF __18F6680                                                                C:\MCC18\MPASM\p18cxxx.inc
                                                INCLUDE <P18F6680.INC>                                                      C:\MCC18\MPASM\p18cxxx.inc
                                             ENDIF                                                                          C:\MCC18\MPASM\p18cxxx.inc
                                             IFDEF __18F8585                                                                C:\MCC18\MPASM\p18cxxx.inc
                                                INCLUDE <P18F8585.INC>                                                      C:\MCC18\MPASM\p18cxxx.inc
                                             ENDIF                                                                          C:\MCC18\MPASM\p18cxxx.inc
                                             IFDEF __18F6585                                                                C:\MCC18\MPASM\p18cxxx.inc
                                                INCLUDE <P18F6585.INC>                                                      C:\MCC18\MPASM\p18cxxx.inc
                                             ENDIF                                                                          C:\MCC18\MPASM\p18cxxx.inc
                                             IFDEF __18F6621                                                                C:\MCC18\MPASM\p18cxxx.inc
                                                INCLUDE <P18F6621.INC>                                                      C:\MCC18\MPASM\p18cxxx.inc
                                             ENDIF                                                                          C:\MCC18\MPASM\p18cxxx.inc
                                             IFDEF __18F8621                                                                C:\MCC18\MPASM\p18cxxx.inc
                                                INCLUDE <P18F8621.INC>                                                      C:\MCC18\MPASM\p18cxxx.inc
                                             ENDIF                                                                          C:\MCC18\MPASM\p18cxxx.inc
                                             IFDEF __18F6525                                                                C:\MCC18\MPASM\p18cxxx.inc
                                                INCLUDE <P18F6525.INC>                                                      C:\MCC18\MPASM\p18cxxx.inc
                                             ENDIF                                                                          C:\MCC18\MPASM\p18cxxx.inc
                                             IFDEF __18F8525                                                                C:\MCC18\MPASM\p18cxxx.inc
                                                INCLUDE <P18F8525.INC>                                                      C:\MCC18\MPASM\p18cxxx.inc
                                             ENDIF                                                                          C:\MCC18\MPASM\p18cxxx.inc
                                             IFDEF __18F2331                                                                C:\MCC18\MPASM\p18cxxx.inc
                                                INCLUDE <P18F2331.INC>                                                      C:\MCC18\MPASM\p18cxxx.inc
                                             ENDIF                                                                          C:\MCC18\MPASM\p18cxxx.inc
                                             IFDEF __18F2431                                                                C:\MCC18\MPASM\p18cxxx.inc
                                                INCLUDE <P18F2431.INC>                                                      C:\MCC18\MPASM\p18cxxx.inc
                                             ENDIF                                                                          C:\MCC18\MPASM\p18cxxx.inc
                                             IFDEF __18F4331                                                                C:\MCC18\MPASM\p18cxxx.inc
                                                INCLUDE <P18F4331.INC>                                                      C:\MCC18\MPASM\p18cxxx.inc
                                             ENDIF                                                                          C:\MCC18\MPASM\p18cxxx.inc
                                             IFDEF __18F4431                                                                C:\MCC18\MPASM\p18cxxx.inc
                                                INCLUDE <P18F4431.INC>                                                      C:\MCC18\MPASM\p18cxxx.inc
                                             ENDIF                                                                          C:\MCC18\MPASM\p18cxxx.inc
                                             IFDEF __18F2515                                                                C:\MCC18\MPASM\p18cxxx.inc
                                                INCLUDE <P18F2515.INC>                                                      C:\MCC18\MPASM\p18cxxx.inc
                                             ENDIF                                                                          C:\MCC18\MPASM\p18cxxx.inc
                                             IFDEF __18F2525                                                                C:\MCC18\MPASM\p18cxxx.inc
                                                INCLUDE <P18F2525.INC>                                                      C:\MCC18\MPASM\p18cxxx.inc
                                             ENDIF                                                                          C:\MCC18\MPASM\p18cxxx.inc
                                             IFDEF __18F2610                                                                C:\MCC18\MPASM\p18cxxx.inc
                                                INCLUDE <P18F2610.INC>                                                      C:\MCC18\MPASM\p18cxxx.inc
                                             ENDIF                                                                          C:\MCC18\MPASM\p18cxxx.inc
                                             IFDEF __18F2620                                                                C:\MCC18\MPASM\p18cxxx.inc
                                                INCLUDE <P18F2620.INC>                                                      C:\MCC18\MPASM\p18cxxx.inc
                                             ENDIF                                                                          C:\MCC18\MPASM\p18cxxx.inc
                                             IFDEF __18F4515                                                                C:\MCC18\MPASM\p18cxxx.inc
                                                INCLUDE <P18F4515.INC>                                                      C:\MCC18\MPASM\p18cxxx.inc
                                             ENDIF                                                                          C:\MCC18\MPASM\p18cxxx.inc
                                             IFDEF __18F4525                                                                C:\MCC18\MPASM\p18cxxx.inc
                                                INCLUDE <P18F4525.INC>                                                      C:\MCC18\MPASM\p18cxxx.inc
                                             ENDIF                                                                          C:\MCC18\MPASM\p18cxxx.inc
                                             IFDEF __18F4610                                                                C:\MCC18\MPASM\p18cxxx.inc
                                                INCLUDE <P18F4610.INC>                                                      C:\MCC18\MPASM\p18cxxx.inc
                                             ENDIF                                                                          C:\MCC18\MPASM\p18cxxx.inc
                                             IFDEF __18F4620                                                                C:\MCC18\MPASM\p18cxxx.inc
                                                INCLUDE <P18F4620.INC>                                                      C:\MCC18\MPASM\p18cxxx.inc
                                             ENDIF                                                                          C:\MCC18\MPASM\p18cxxx.inc
                                             IFDEF __18F6410                                                                C:\MCC18\MPASM\p18cxxx.inc
                                                INCLUDE <P18F6410.INC>                                                      C:\MCC18\MPASM\p18cxxx.inc
                                             ENDIF                                                                          C:\MCC18\MPASM\p18cxxx.inc
                                             IFDEF __18F6490                                                                C:\MCC18\MPASM\p18cxxx.inc
                                                INCLUDE <P18F6490.INC>                                                      C:\MCC18\MPASM\p18cxxx.inc
                                             ENDIF                                                                          C:\MCC18\MPASM\p18cxxx.inc
                                             IFDEF __18F8410                                                                C:\MCC18\MPASM\p18cxxx.inc
                                                INCLUDE <P18F8410.INC>                                                      C:\MCC18\MPASM\p18cxxx.inc
                                             ENDIF                                                                          C:\MCC18\MPASM\p18cxxx.inc
                                             IFDEF __18F8490                                                                C:\MCC18\MPASM\p18cxxx.inc
                                                INCLUDE <P18F8490.INC>                                                      C:\MCC18\MPASM\p18cxxx.inc
                                             ENDIF                                                                          C:\MCC18\MPASM\p18cxxx.inc
                                             IFDEF __18F2585                                                                C:\MCC18\MPASM\p18cxxx.inc
                                                INCLUDE <P18F2585.INC>                                                      C:\MCC18\MPASM\p18cxxx.inc
                                             ENDIF                                                                          C:\MCC18\MPASM\p18cxxx.inc
                                             IFDEF __18F2680                                                                C:\MCC18\MPASM\p18cxxx.inc
                                                INCLUDE <P18F2680.INC>                                                      C:\MCC18\MPASM\p18cxxx.inc
                                             ENDIF                                                                          C:\MCC18\MPASM\p18cxxx.inc
                                             IFDEF __18F2681                                                                C:\MCC18\MPASM\p18cxxx.inc
                                                INCLUDE <P18F2681.INC>                                                      C:\MCC18\MPASM\p18cxxx.inc
                                             ENDIF                                                                          C:\MCC18\MPASM\p18cxxx.inc
                                             IFDEF __18F4585                                                                C:\MCC18\MPASM\p18cxxx.inc
                                                INCLUDE <P18F4585.INC>                                                      C:\MCC18\MPASM\p18cxxx.inc
                                             ENDIF                                                                          C:\MCC18\MPASM\p18cxxx.inc
                                             IFDEF __18F4680                                                                C:\MCC18\MPASM\p18cxxx.inc
                                                INCLUDE <P18F4680.INC>                                                      C:\MCC18\MPASM\p18cxxx.inc
                                             ENDIF                                                                          C:\MCC18\MPASM\p18cxxx.inc
                                             IFDEF __18F4681                                                                C:\MCC18\MPASM\p18cxxx.inc
                                                INCLUDE <P18F4681.INC>                                                      C:\MCC18\MPASM\p18cxxx.inc
                                             ENDIF                                                                          C:\MCC18\MPASM\p18cxxx.inc
                                             IFDEF __18F2510                                                                C:\MCC18\MPASM\p18cxxx.inc
                                                INCLUDE <P18F2510.INC>                                                      C:\MCC18\MPASM\p18cxxx.inc
                                             ENDIF                                                                          C:\MCC18\MPASM\p18cxxx.inc
                                             IFDEF __18F2520                                                                C:\MCC18\MPASM\p18cxxx.inc
                                                INCLUDE <P18F2520.INC>                                                      C:\MCC18\MPASM\p18cxxx.inc
                                             ENDIF                                                                          C:\MCC18\MPASM\p18cxxx.inc
                                             IFDEF __18F4510                                                                C:\MCC18\MPASM\p18cxxx.inc
                                                INCLUDE <P18F4510.INC>                                                      C:\MCC18\MPASM\p18cxxx.inc
                                             ENDIF                                                                          C:\MCC18\MPASM\p18cxxx.inc
                                             IFDEF __18F4520                                                                C:\MCC18\MPASM\p18cxxx.inc
                                                INCLUDE <P18F4520.INC>                                                      C:\MCC18\MPASM\p18cxxx.inc
                                             ENDIF                                                                          C:\MCC18\MPASM\p18cxxx.inc
                                             IFDEF __18F2455                                                                C:\MCC18\MPASM\p18cxxx.inc
                                                INCLUDE <P18F2455.INC>                                                      C:\MCC18\MPASM\p18cxxx.inc
                                             ENDIF                                                                          C:\MCC18\MPASM\p18cxxx.inc
                                             IFDEF __18F2550                                                                C:\MCC18\MPASM\p18cxxx.inc
                                                INCLUDE <P18F2550.INC>                                                      C:\MCC18\MPASM\p18cxxx.inc
                                             ENDIF                                                                          C:\MCC18\MPASM\p18cxxx.inc
                                             IFDEF __18F4455                                                                C:\MCC18\MPASM\p18cxxx.inc
                                                INCLUDE <P18F4455.INC>                                                      C:\MCC18\MPASM\p18cxxx.inc
                                             ENDIF                                                                          C:\MCC18\MPASM\p18cxxx.inc
                                             IFDEF __18F4550                                                                C:\MCC18\MPASM\p18cxxx.inc
                                                INCLUDE <P18F4550.INC>                                                      C:\MCC18\MPASM\p18cxxx.inc
                                             ENDIF                                                                          C:\MCC18\MPASM\p18cxxx.inc
                                             IFDEF __18F2410                                                                C:\MCC18\MPASM\p18cxxx.inc
                                                INCLUDE <P18F2410.INC>                                                      C:\MCC18\MPASM\p18cxxx.inc
                                             ENDIF                                                                          C:\MCC18\MPASM\p18cxxx.inc
                                             IFDEF __18F2420                                                                C:\MCC18\MPASM\p18cxxx.inc
                                                INCLUDE <P18F2420.INC>                                                      C:\MCC18\MPASM\p18cxxx.inc
                                             ENDIF                                                                          C:\MCC18\MPASM\p18cxxx.inc
                                             IFDEF __18F4410                                                                C:\MCC18\MPASM\p18cxxx.inc
                                                INCLUDE <P18F4410.INC>                                                      C:\MCC18\MPASM\p18cxxx.inc
                                             ENDIF                                                                          C:\MCC18\MPASM\p18cxxx.inc
                                             IFDEF __18F4420                                                                C:\MCC18\MPASM\p18cxxx.inc
                                                INCLUDE <P18F4420.INC>                                                      C:\MCC18\MPASM\p18cxxx.inc
                                             ENDIF                                                                          C:\MCC18\MPASM\p18cxxx.inc
                                             IFDEF __18F2480                                                                C:\MCC18\MPASM\p18cxxx.inc
                                                INCLUDE <P18F2480.INC>                                                      C:\MCC18\MPASM\p18cxxx.inc
                                             ENDIF                                                                          C:\MCC18\MPASM\p18cxxx.inc
                                             IFDEF __18F2580                                                                C:\MCC18\MPASM\p18cxxx.inc
                                                INCLUDE <P18F2580.INC>                                                      C:\MCC18\MPASM\p18cxxx.inc
                                             ENDIF                                                                          C:\MCC18\MPASM\p18cxxx.inc
                                             IFDEF __18F4480                                                                C:\MCC18\MPASM\p18cxxx.inc
                                                INCLUDE <P18F4480.INC>                                                      C:\MCC18\MPASM\p18cxxx.inc
                                             ENDIF                                                                          C:\MCC18\MPASM\p18cxxx.inc
                                             IFDEF __18F4580                                                                C:\MCC18\MPASM\p18cxxx.inc
                                                INCLUDE <P18F4580.INC>                                                      C:\MCC18\MPASM\p18cxxx.inc
                                             ENDIF                                                                          C:\MCC18\MPASM\p18cxxx.inc
                                             IFDEF __18F6310                                                                C:\MCC18\MPASM\p18cxxx.inc
                                                INCLUDE <P18F6310.INC>                                                      C:\MCC18\MPASM\p18cxxx.inc
                                             ENDIF                                                                          C:\MCC18\MPASM\p18cxxx.inc
                                             IFDEF __18F6390                                                                C:\MCC18\MPASM\p18cxxx.inc
                                                INCLUDE <P18F6390.INC>                                                      C:\MCC18\MPASM\p18cxxx.inc
                                             ENDIF                                                                          C:\MCC18\MPASM\p18cxxx.inc
                                             IFDEF __18F8310                                                                C:\MCC18\MPASM\p18cxxx.inc
                                                INCLUDE <P18F8310.INC>                                                      C:\MCC18\MPASM\p18cxxx.inc
                                             ENDIF                                                                          C:\MCC18\MPASM\p18cxxx.inc
                                             IFDEF __18F8390                                                                C:\MCC18\MPASM\p18cxxx.inc
                                                INCLUDE <P18F8390.INC>                                                      C:\MCC18\MPASM\p18cxxx.inc
                                             ENDIF                                                                          C:\MCC18\MPASM\p18cxxx.inc
                                             IFDEF __18F6627                                                                C:\MCC18\MPASM\p18cxxx.inc
                                                INCLUDE <P18F6627.INC>                                                      C:\MCC18\MPASM\p18cxxx.inc
                                             ENDIF                                                                          C:\MCC18\MPASM\p18cxxx.inc
                                             IFDEF __18F6722                                                                C:\MCC18\MPASM\p18cxxx.inc
                                                INCLUDE <P18F6722.INC>                                                      C:\MCC18\MPASM\p18cxxx.inc
                                             ENDIF                                                                          C:\MCC18\MPASM\p18cxxx.inc
                                             IFDEF __18F8627                                                                C:\MCC18\MPASM\p18cxxx.inc
                                                INCLUDE <P18F8627.INC>                                                      C:\MCC18\MPASM\p18cxxx.inc
                                             ENDIF                                                                          C:\MCC18\MPASM\p18cxxx.inc
                                             IFDEF __18F8722                                                                C:\MCC18\MPASM\p18cxxx.inc
                                                INCLUDE <P18F8722.INC>                                                      C:\MCC18\MPASM\p18cxxx.inc
                                             ENDIF                                                                          C:\MCC18\MPASM\p18cxxx.inc
                                             IFDEF __18F65J10                                                               C:\MCC18\MPASM\p18cxxx.inc
                                                INCLUDE <P18F65J10.INC>                                                     C:\MCC18\MPASM\p18cxxx.inc
                                             ENDIF                                                                          C:\MCC18\MPASM\p18cxxx.inc
                                             IFDEF __18F65J15                                                               C:\MCC18\MPASM\p18cxxx.inc
                                                INCLUDE <P18F65J15.INC>                                                     C:\MCC18\MPASM\p18cxxx.inc
                                             ENDIF                                                                          C:\MCC18\MPASM\p18cxxx.inc
                                             IFDEF __18F66J10                                                               C:\MCC18\MPASM\p18cxxx.inc
                                                INCLUDE <P18F66J10.INC>                                                     C:\MCC18\MPASM\p18cxxx.inc
                                             ENDIF                                                                          C:\MCC18\MPASM\p18cxxx.inc
                                             IFDEF __18F66J15                                                               C:\MCC18\MPASM\p18cxxx.inc
                                                INCLUDE <P18F66J15.INC>                                                     C:\MCC18\MPASM\p18cxxx.inc
                                             ENDIF                                                                          C:\MCC18\MPASM\p18cxxx.inc
                                             IFDEF __18F67J10                                                               C:\MCC18\MPASM\p18cxxx.inc
                                                INCLUDE <P18F67J10.INC>                                                     C:\MCC18\MPASM\p18cxxx.inc
                                             ENDIF                                                                          C:\MCC18\MPASM\p18cxxx.inc
                                             IFDEF __18F85J10                                                               C:\MCC18\MPASM\p18cxxx.inc
                                                INCLUDE <P18F85J10.INC>                                                     C:\MCC18\MPASM\p18cxxx.inc
                                             ENDIF                                                                          C:\MCC18\MPASM\p18cxxx.inc
                                             IFDEF __18F85J15                                                               C:\MCC18\MPASM\p18cxxx.inc
                                                INCLUDE <P18F85J15.INC>                                                     C:\MCC18\MPASM\p18cxxx.inc
                                             ENDIF                                                                          C:\MCC18\MPASM\p18cxxx.inc
                                             IFDEF __18F86J10                                                               C:\MCC18\MPASM\p18cxxx.inc
                                                INCLUDE <P18F86J10.INC>                                                     C:\MCC18\MPASM\p18cxxx.inc
                                             ENDIF                                                                          C:\MCC18\MPASM\p18cxxx.inc
                                             IFDEF __18F86J15                                                               C:\MCC18\MPASM\p18cxxx.inc
                                                INCLUDE <P18F86J15.INC>                                                     C:\MCC18\MPASM\p18cxxx.inc
                                             ENDIF                                                                          C:\MCC18\MPASM\p18cxxx.inc
                                             IFDEF __18F87J10                                                               C:\MCC18\MPASM\p18cxxx.inc
                                                INCLUDE <P18F87J10.INC>                                                     C:\MCC18\MPASM\p18cxxx.inc
                                             ENDIF                                                                          C:\MCC18\MPASM\p18cxxx.inc
                                             IFDEF __18F6527                                                                C:\MCC18\MPASM\p18cxxx.inc
                                                INCLUDE <P18F6527.INC>                                                      C:\MCC18\MPASM\p18cxxx.inc
                                             ENDIF                                                                          C:\MCC18\MPASM\p18cxxx.inc
                                             IFDEF __18F6622                                                                C:\MCC18\MPASM\p18cxxx.inc
                                                INCLUDE <P18F6622.INC>                                                      C:\MCC18\MPASM\p18cxxx.inc
                                             ENDIF                                                                          C:\MCC18\MPASM\p18cxxx.inc
                                             IFDEF __18F8527                                                                C:\MCC18\MPASM\p18cxxx.inc
                                                INCLUDE <P18F8527.INC>                                                      C:\MCC18\MPASM\p18cxxx.inc
                                             ENDIF                                                                          C:\MCC18\MPASM\p18cxxx.inc
                                             IFDEF __18F8622                                                                C:\MCC18\MPASM\p18cxxx.inc
                                                INCLUDE <P18F8622.INC>                                                      C:\MCC18\MPASM\p18cxxx.inc
                                             ENDIF                                                                          C:\MCC18\MPASM\p18cxxx.inc
                                             IFDEF __18F24J10                                                               C:\MCC18\MPASM\p18cxxx.inc
                                                INCLUDE <P18F24J10.INC>                                                     C:\MCC18\MPASM\p18cxxx.inc
                                             ENDIF                                                                          C:\MCC18\MPASM\p18cxxx.inc
                                             IFDEF __18F25J10                                                               C:\MCC18\MPASM\p18cxxx.inc
                                                INCLUDE <P18F25J10.INC>                                                     C:\MCC18\MPASM\p18cxxx.inc
                                             ENDIF                                                                          C:\MCC18\MPASM\p18cxxx.inc
                                             IFDEF __18F44J10                                                               C:\MCC18\MPASM\p18cxxx.inc
                                                INCLUDE <P18F44J10.INC>                                                     C:\MCC18\MPASM\p18cxxx.inc
                                             ENDIF                                                                          C:\MCC18\MPASM\p18cxxx.inc
                                             IFDEF __18F45J10                                                               C:\MCC18\MPASM\p18cxxx.inc
                                                INCLUDE <P18F45J10.INC>                                                     C:\MCC18\MPASM\p18cxxx.inc
                                             ENDIF                                                                          C:\MCC18\MPASM\p18cxxx.inc
                                             IFDEF __18F2221                                                                C:\MCC18\MPASM\p18cxxx.inc
                                                INCLUDE <P18F2221.INC>                                                      C:\MCC18\MPASM\p18cxxx.inc
                                             ENDIF                                                                          C:\MCC18\MPASM\p18cxxx.inc
                                             IFDEF __18F2321                                                                C:\MCC18\MPASM\p18cxxx.inc
                                                INCLUDE <P18F2321.INC>                                                      C:\MCC18\MPASM\p18cxxx.inc
                                             ENDIF                                                                          C:\MCC18\MPASM\p18cxxx.inc
                                             IFDEF __18F4221                                                                C:\MCC18\MPASM\p18cxxx.inc
                                                INCLUDE <P18F4221.INC>                                                      C:\MCC18\MPASM\p18cxxx.inc
                                             ENDIF                                                                          C:\MCC18\MPASM\p18cxxx.inc
                                             IFDEF __18F4321                                                                C:\MCC18\MPASM\p18cxxx.inc
                                                INCLUDE <P18F4321.INC>                                                      C:\MCC18\MPASM\p18cxxx.inc
                                             ENDIF                                                                          C:\MCC18\MPASM\p18cxxx.inc
                                             IFDEF __18F97J60                                                               C:\MCC18\MPASM\p18cxxx.inc
                                                INCLUDE <P18F97J60.INC>                                                     C:\MCC18\MPASM\p18cxxx.inc
                                             ENDIF                                                                          C:\MCC18\MPASM\p18cxxx.inc
                                             IFDEF __18F96J65                                                               C:\MCC18\MPASM\p18cxxx.inc
                                                INCLUDE <P18F96J65.INC>                                                     C:\MCC18\MPASM\p18cxxx.inc
                                             ENDIF                                                                          C:\MCC18\MPASM\p18cxxx.inc
                                             IFDEF __18F96J60                                                               C:\MCC18\MPASM\p18cxxx.inc
                                                INCLUDE <P18F96J60.INC>                                                     C:\MCC18\MPASM\p18cxxx.inc
                                             ENDIF                                                                          C:\MCC18\MPASM\p18cxxx.inc
                                             IFDEF __18F87J60                                                               C:\MCC18\MPASM\p18cxxx.inc
                                                INCLUDE <P18F87J60.INC>                                                     C:\MCC18\MPASM\p18cxxx.inc
                                             ENDIF                                                                          C:\MCC18\MPASM\p18cxxx.inc
                                             IFDEF __18F86J65                                                               C:\MCC18\MPASM\p18cxxx.inc
                                                INCLUDE <P18F86J65.INC>                                                     C:\MCC18\MPASM\p18cxxx.inc
                                             ENDIF                                                                          C:\MCC18\MPASM\p18cxxx.inc
                                             IFDEF __18F86J60                                                               C:\MCC18\MPASM\p18cxxx.inc
                                                INCLUDE <P18F86J60.INC>                                                     C:\MCC18\MPASM\p18cxxx.inc
                                             ENDIF                                                                          C:\MCC18\MPASM\p18cxxx.inc
                                             IFDEF __18F67J60                                                               C:\MCC18\MPASM\p18cxxx.inc
                                                INCLUDE <P18F67J60.INC>                                                     C:\MCC18\MPASM\p18cxxx.inc
                                             ENDIF                                                                          C:\MCC18\MPASM\p18cxxx.inc
                                             IFDEF __18F66J65                                                               C:\MCC18\MPASM\p18cxxx.inc
                                                INCLUDE <P18F66J65.INC>                                                     C:\MCC18\MPASM\p18cxxx.inc
                                             ENDIF                                                                          C:\MCC18\MPASM\p18cxxx.inc
                                             IFDEF __18F66J60                                                               C:\MCC18\MPASM\p18cxxx.inc
                                                INCLUDE <P18F66J60.INC>                                                     C:\MCC18\MPASM\p18cxxx.inc
                                             ENDIF                                                                          C:\MCC18\MPASM\p18cxxx.inc
                                             IFDEF __18F1331                                                                C:\MCC18\MPASM\p18cxxx.inc
                                                INCLUDE <P18F1331.INC>                                                      C:\MCC18\MPASM\p18cxxx.inc
                                             ENDIF                                                                          C:\MCC18\MPASM\p18cxxx.inc
                                             IFDEF __18F1330                                                                C:\MCC18\MPASM\p18cxxx.inc
                                                INCLUDE <P18F1330.INC>                                                      C:\MCC18\MPASM\p18cxxx.inc
                                             ENDIF                                                                          C:\MCC18\MPASM\p18cxxx.inc
                                             IFDEF __18F1231                                                                C:\MCC18\MPASM\p18cxxx.inc
                                                INCLUDE <P18F1231.INC>                                                      C:\MCC18\MPASM\p18cxxx.inc
                                             ENDIF                                                                          C:\MCC18\MPASM\p18cxxx.inc
                                             IFDEF __18F1230                                                                C:\MCC18\MPASM\p18cxxx.inc
                                                INCLUDE <P18F1230.INC>                                                      C:\MCC18\MPASM\p18cxxx.inc
                                             ENDIF                                                                          C:\MCC18\MPASM\p18cxxx.inc
                                             IFDEF __18F4450                                                                C:\MCC18\MPASM\p18cxxx.inc
                                                INCLUDE <P18F4450.INC>                                                      C:\MCC18\MPASM\p18cxxx.inc
                                             ENDIF                                                                          C:\MCC18\MPASM\p18cxxx.inc
                                             IFDEF __18F2450                                                                C:\MCC18\MPASM\p18cxxx.inc
                                                INCLUDE <P18F2450.INC>                                                      C:\MCC18\MPASM\p18cxxx.inc
                                             ENDIF                                                                          C:\MCC18\MPASM\p18cxxx.inc
                                             IFDEF __18F4523                                                                C:\MCC18\MPASM\p18cxxx.inc
                                                INCLUDE <P18F4523.INC>                                                      C:\MCC18\MPASM\p18cxxx.inc
                                             ENDIF                                                                          C:\MCC18\MPASM\p18cxxx.inc
                                             IFDEF __18F4423                                                                C:\MCC18\MPASM\p18cxxx.inc
                                                INCLUDE <P18F4423.INC>                                                      C:\MCC18\MPASM\p18cxxx.inc
                                             ENDIF                                                                          C:\MCC18\MPASM\p18cxxx.inc
                                             IFDEF __18F2523                                                                C:\MCC18\MPASM\p18cxxx.inc
                                                INCLUDE <P18F2523.INC>                                                      C:\MCC18\MPASM\p18cxxx.inc
                                             ENDIF                                                                          C:\MCC18\MPASM\p18cxxx.inc
                                             IFDEF __18F2423                                                                C:\MCC18\MPASM\p18cxxx.inc
                                                INCLUDE <P18F2423.INC>                                                      C:\MCC18\MPASM\p18cxxx.inc
                                             ENDIF                                                                          C:\MCC18\MPASM\p18cxxx.inc
                                             IFDEF __18F85J90                                                               C:\MCC18\MPASM\p18cxxx.inc
                                                INCLUDE <P18F85J90.INC>                                                     C:\MCC18\MPASM\p18cxxx.inc
                                             ENDIF                                                                          C:\MCC18\MPASM\p18cxxx.inc
                                             IFDEF __18F84J90                                                               C:\MCC18\MPASM\p18cxxx.inc
                                                INCLUDE <P18F84J90.INC>                                                     C:\MCC18\MPASM\p18cxxx.inc
                                             ENDIF                                                                          C:\MCC18\MPASM\p18cxxx.inc
                                             IFDEF __18F83J90                                                               C:\MCC18\MPASM\p18cxxx.inc
                                                INCLUDE <P18F83J90.INC>                                                     C:\MCC18\MPASM\p18cxxx.inc
                                             ENDIF                                                                          C:\MCC18\MPASM\p18cxxx.inc
                                             IFDEF __18F65J90                                                               C:\MCC18\MPASM\p18cxxx.inc
                                                INCLUDE <P18F65J90.INC>                                                     C:\MCC18\MPASM\p18cxxx.inc
                                             ENDIF                                                                          C:\MCC18\MPASM\p18cxxx.inc
                                             IFDEF __18F64J90                                                               C:\MCC18\MPASM\p18cxxx.inc
                                                INCLUDE <P18F64J90.INC>                                                     C:\MCC18\MPASM\p18cxxx.inc
                                             ENDIF                                                                          C:\MCC18\MPASM\p18cxxx.inc
                                             IFDEF __18F63J90                                                               C:\MCC18\MPASM\p18cxxx.inc
                                                INCLUDE <P18F63J90.INC>                                                     C:\MCC18\MPASM\p18cxxx.inc
                                             ENDIF                                                                          C:\MCC18\MPASM\p18cxxx.inc
                                             IFDEF __18F45K20                                                               C:\MCC18\MPASM\p18cxxx.inc
                                                INCLUDE <P18F45K20.INC>                                                     C:\MCC18\MPASM\p18cxxx.inc
                                             ENDIF                                                                          C:\MCC18\MPASM\p18cxxx.inc
                                             IFDEF __18F25K20                                                               C:\MCC18\MPASM\p18cxxx.inc
                                                INCLUDE <P18F25K20.INC>                                                     C:\MCC18\MPASM\p18cxxx.inc
                                             ENDIF                                                                          C:\MCC18\MPASM\p18cxxx.inc
                                             IFDEF __18F4685                                                                C:\MCC18\MPASM\p18cxxx.inc
                                                INCLUDE <P18F4685.INC>                                                      C:\MCC18\MPASM\p18cxxx.inc
                                             ENDIF                                                                          C:\MCC18\MPASM\p18cxxx.inc
                                             IFDEF __18F2685                                                                C:\MCC18\MPASM\p18cxxx.inc
                                                INCLUDE <P18F2685.INC>                                                      C:\MCC18\MPASM\p18cxxx.inc
                                             ENDIF                                                                          C:\MCC18\MPASM\p18cxxx.inc
                                             IFDEF __18F85J11                                                               C:\MCC18\MPASM\p18cxxx.inc
                                                INCLUDE <P18F85J11.INC>                                                     C:\MCC18\MPASM\p18cxxx.inc
                                             ENDIF                                                                          C:\MCC18\MPASM\p18cxxx.inc
                                             IFDEF __18F84J11                                                               C:\MCC18\MPASM\p18cxxx.inc
                                                INCLUDE <P18F84J11.INC>                                                     C:\MCC18\MPASM\p18cxxx.inc
                                             ENDIF                                                                          C:\MCC18\MPASM\p18cxxx.inc
                                             IFDEF __18F83J11                                                               C:\MCC18\MPASM\p18cxxx.inc
                                                INCLUDE <P18F83J11.INC>                                                     C:\MCC18\MPASM\p18cxxx.inc
                                             ENDIF                                                                          C:\MCC18\MPASM\p18cxxx.inc
                                             IFDEF __18F65J11                                                               C:\MCC18\MPASM\p18cxxx.inc
                                                INCLUDE <P18F65J11.INC>                                                     C:\MCC18\MPASM\p18cxxx.inc
                                             ENDIF                                                                          C:\MCC18\MPASM\p18cxxx.inc
                                             IFDEF __18F64J11                                                               C:\MCC18\MPASM\p18cxxx.inc
                                                INCLUDE <P18F64J11.INC>                                                     C:\MCC18\MPASM\p18cxxx.inc
                                             ENDIF                                                                          C:\MCC18\MPASM\p18cxxx.inc
                                             IFDEF __18F63J11                                                               C:\MCC18\MPASM\p18cxxx.inc
                                                INCLUDE <P18F63J11.INC>                                                     C:\MCC18\MPASM\p18cxxx.inc
                                             ENDIF                                                                          C:\MCC18\MPASM\p18cxxx.inc
                                             IFDEF __18F4682                                                                C:\MCC18\MPASM\p18cxxx.inc
                                                INCLUDE <P18F4682.INC>                                                      C:\MCC18\MPASM\p18cxxx.inc
                                             ENDIF                                                                          C:\MCC18\MPASM\p18cxxx.inc
                                             IFDEF __18F2682                                                                C:\MCC18\MPASM\p18cxxx.inc
                                                INCLUDE <P18F2682.INC>                                                      C:\MCC18\MPASM\p18cxxx.inc
                                             ENDIF                                                                          C:\MCC18\MPASM\p18cxxx.inc
                                             IFDEF __18F87J50                                                               C:\MCC18\MPASM\p18cxxx.inc
                                                INCLUDE <P18F87J50.INC>                                                     C:\MCC18\MPASM\p18cxxx.inc
                                             ENDIF                                                                          C:\MCC18\MPASM\p18cxxx.inc
                                             IFDEF __18F86J55                                                               C:\MCC18\MPASM\p18cxxx.inc
                                                INCLUDE <P18F86J55.INC>                                                     C:\MCC18\MPASM\p18cxxx.inc
                                             ENDIF                                                                          C:\MCC18\MPASM\p18cxxx.inc
                                             IFDEF __18F86J50                                                               C:\MCC18\MPASM\p18cxxx.inc
                                                INCLUDE <P18F86J50.INC>                                                     C:\MCC18\MPASM\p18cxxx.inc
                                             ENDIF                                                                          C:\MCC18\MPASM\p18cxxx.inc
                                             IFDEF __18F85J50                                                               C:\MCC18\MPASM\p18cxxx.inc
                                                INCLUDE <P18F85J50.INC>                                                     C:\MCC18\MPASM\p18cxxx.inc
                                             ENDIF                                                                          C:\MCC18\MPASM\p18cxxx.inc
                                             IFDEF __18F67J50                                                               C:\MCC18\MPASM\p18cxxx.inc
                                                INCLUDE <P18F67J50.INC>                                                     C:\MCC18\MPASM\p18cxxx.inc
                                             ENDIF                                                                          C:\MCC18\MPASM\p18cxxx.inc
                                             IFDEF __18F66J55                                                               C:\MCC18\MPASM\p18cxxx.inc
                                                INCLUDE <P18F66J55.INC>                                                     C:\MCC18\MPASM\p18cxxx.inc
                                             ENDIF                                                                          C:\MCC18\MPASM\p18cxxx.inc
                                             IFDEF __18F66J50                                                               C:\MCC18\MPASM\p18cxxx.inc
                                                INCLUDE <P18F66J50.INC>                                                     C:\MCC18\MPASM\p18cxxx.inc
                                             ENDIF                                                                          C:\MCC18\MPASM\p18cxxx.inc
                                             IFDEF __18F65J50                                                               C:\MCC18\MPASM\p18cxxx.inc
                                                INCLUDE <P18F65J50.INC>                                                     C:\MCC18\MPASM\p18cxxx.inc
                                             ENDIF                                                                          C:\MCC18\MPASM\p18cxxx.inc
                                             IFDEF __18F87J11                                                               C:\MCC18\MPASM\p18cxxx.inc
                                                INCLUDE <P18F87J11.INC>                                                     C:\MCC18\MPASM\p18cxxx.inc
                                             ENDIF                                                                          C:\MCC18\MPASM\p18cxxx.inc
                                             IFDEF __18F86J16                                                               C:\MCC18\MPASM\p18cxxx.inc
                                                INCLUDE <P18F86J16.INC>                                                     C:\MCC18\MPASM\p18cxxx.inc
                                             ENDIF                                                                          C:\MCC18\MPASM\p18cxxx.inc
                                             IFDEF __18F86J11                                                               C:\MCC18\MPASM\p18cxxx.inc
                                                INCLUDE <P18F86J11.INC>                                                     C:\MCC18\MPASM\p18cxxx.inc
                                             ENDIF                                                                          C:\MCC18\MPASM\p18cxxx.inc
                                             IFDEF __18F67J11                                                               C:\MCC18\MPASM\p18cxxx.inc
                                                INCLUDE <P18F67J11.INC>                                                     C:\MCC18\MPASM\p18cxxx.inc
                                             ENDIF                                                                          C:\MCC18\MPASM\p18cxxx.inc
                                             IFDEF __18F66J16                                                               C:\MCC18\MPASM\p18cxxx.inc
                                                INCLUDE <P18F66J16.INC>                                                     C:\MCC18\MPASM\p18cxxx.inc
                                             ENDIF                                                                          C:\MCC18\MPASM\p18cxxx.inc
                                             IFDEF __18F66J11                                                               C:\MCC18\MPASM\p18cxxx.inc
                                                INCLUDE <P18F66J11.INC>                                                     C:\MCC18\MPASM\p18cxxx.inc
                                             ENDIF                                                                          C:\MCC18\MPASM\p18cxxx.inc
                                             IFDEF __18F44K20                                                               C:\MCC18\MPASM\p18cxxx.inc
                                                INCLUDE <P18F44K20.INC>                                                     C:\MCC18\MPASM\p18cxxx.inc
                                             ENDIF                                                                          C:\MCC18\MPASM\p18cxxx.inc
                                             IFDEF __18F24K20                                                               C:\MCC18\MPASM\p18cxxx.inc
                                                INCLUDE <P18F24K20.INC>                                                     C:\MCC18\MPASM\p18cxxx.inc
                                             ENDIF                                                                          C:\MCC18\MPASM\p18cxxx.inc
                                             IFDEF __18F2458                                                                C:\MCC18\MPASM\p18cxxx.inc
                                                INCLUDE <P18F2458.INC>                                                      C:\MCC18\MPASM\p18cxxx.inc
                                             ENDIF                                                                          C:\MCC18\MPASM\p18cxxx.inc
                                             IFDEF __18F2553                                                                C:\MCC18\MPASM\p18cxxx.inc
                                                INCLUDE <P18F2553.INC>                                                      C:\MCC18\MPASM\p18cxxx.inc
                                             ENDIF                                                                          C:\MCC18\MPASM\p18cxxx.inc
                                             IFDEF __18F4458                                                                C:\MCC18\MPASM\p18cxxx.inc
                                                INCLUDE <P18F4458.INC>                                                      C:\MCC18\MPASM\p18cxxx.inc
                                             ENDIF                                                                          C:\MCC18\MPASM\p18cxxx.inc
                                             IFDEF __18F4553                                                                C:\MCC18\MPASM\p18cxxx.inc
                                                INCLUDE <P18F4553.INC>                                                      C:\MCC18\MPASM\p18cxxx.inc
                                             ENDIF                                                                          C:\MCC18\MPASM\p18cxxx.inc
                                                                                                                            C:\MCC18\MPASM\p18cxxx.inc
                                                                                                                            C:\MCC18\SRC\TRADIT~1\DELAYS\d1ktcyx.asm
                                           ;/********************************************************************           C:\MCC18\SRC\TRADIT~1\DELAYS\d1ktcyx.asm
                                           ;*   Function Name: Delay1KTCYx                                      *           C:\MCC18\SRC\TRADIT~1\DELAYS\d1ktcyx.asm
                                           ;*   Return Value:  void                                             *           C:\MCC18\SRC\TRADIT~1\DELAYS\d1ktcyx.asm
                                           ;*   Parameters:    unit:                                            *           C:\MCC18\SRC\TRADIT~1\DELAYS\d1ktcyx.asm
                                           ;*   Description:   This routine delays for multiples of 1000        *           C:\MCC18\SRC\TRADIT~1\DELAYS\d1ktcyx.asm
                                           ;*                  instruction cycles that is specified in unit.    *           C:\MCC18\SRC\TRADIT~1\DELAYS\d1ktcyx.asm
                                           ;*   Special Note:  This routine provides multiples of 1000 Tcy      *           C:\MCC18\SRC\TRADIT~1\DELAYS\d1ktcyx.asm
                                           ;*                  A value of 1 to 255 to provides 1000 to          *           C:\MCC18\SRC\TRADIT~1\DELAYS\d1ktcyx.asm
                                           ;*                  255000 Tcy delay.  A value of 0 will provide     *           C:\MCC18\SRC\TRADIT~1\DELAYS\d1ktcyx.asm
                                           ;*                  a delay of 256000 Tcy.                           *           C:\MCC18\SRC\TRADIT~1\DELAYS\d1ktcyx.asm
                                           ;********************************************************************/           C:\MCC18\SRC\TRADIT~1\DELAYS\d1ktcyx.asm
                                               EXTERN  DelayCounter1                                                        C:\MCC18\SRC\TRADIT~1\DELAYS\d1ktcyx.asm
                                                                                                                            C:\MCC18\SRC\TRADIT~1\DELAYS\d1ktcyx.asm
                                           D1KTCYXCODE CODE                                                                 C:\MCC18\SRC\TRADIT~1\DELAYS\d1ktcyx.asm
                                                                                                                            C:\MCC18\SRC\TRADIT~1\DELAYS\d1ktcyx.asm
                                           Delay1KTCYx                                                                      C:\MCC18\SRC\TRADIT~1\DELAYS\d1ktcyx.asm
000660   0eff     MOVLW     0xff               movlw   0xff                                                                 C:\MCC18\SRC\TRADIT~1\DELAYS\d1ktcyx.asm
000662   50e3     MOVF      0xe3,0x0,0x0       movf    PLUSW1,0                                                             C:\MCC18\SRC\TRADIT~1\DELAYS\d1ktcyx.asm
000664   6e04     MOVWF     0x4,0x0            movwf   DelayCounter1                                                        C:\MCC18\SRC\TRADIT~1\DELAYS\d1ktcyx.asm
000666   0e48     MOVLW     0x48               movlw   0x48                                                                 C:\MCC18\SRC\TRADIT~1\DELAYS\d1ktcyx.asm
000668   d001     BRA       0x66c              bra     D1K_1                                                                C:\MCC18\SRC\TRADIT~1\DELAYS\d1ktcyx.asm
                                                                                                                            C:\MCC18\SRC\TRADIT~1\DELAYS\d1ktcyx.asm
                                           D1Kx                                                                             C:\MCC18\SRC\TRADIT~1\DELAYS\d1ktcyx.asm
00066a   0e4c     MOVLW     0x4c               movlw   0x4c                                                                 C:\MCC18\SRC\TRADIT~1\DELAYS\d1ktcyx.asm
                                           D1K_1                                                                            C:\MCC18\SRC\TRADIT~1\DELAYS\d1ktcyx.asm
00066c   6ee7     MOVWF     0xe7,0x0           movwf   INDF1                                                                C:\MCC18\SRC\TRADIT~1\DELAYS\d1ktcyx.asm
00066e   2ee7     DECFSZ    0xe7,0x1,0x0       decfsz  INDF1,1                                                              C:\MCC18\SRC\TRADIT~1\DELAYS\d1ktcyx.asm
000670   d7fe     BRA       0x66e              bra     $-2                                                                  C:\MCC18\SRC\TRADIT~1\DELAYS\d1ktcyx.asm
                                                                                                                            C:\MCC18\SRC\TRADIT~1\DELAYS\d1ktcyx.asm
000672   6ae7     CLRF      0xe7,0x0           clrf    INDF1                                                                C:\MCC18\SRC\TRADIT~1\DELAYS\d1ktcyx.asm
000674   2ee7     DECFSZ    0xe7,0x1,0x0       decfsz  INDF1,1                                                              C:\MCC18\SRC\TRADIT~1\DELAYS\d1ktcyx.asm
000676   d7fe     BRA       0x674              bra     $-2                                                                  C:\MCC18\SRC\TRADIT~1\DELAYS\d1ktcyx.asm
                                                                                                                            C:\MCC18\SRC\TRADIT~1\DELAYS\d1ktcyx.asm
000678   2e04     DECFSZ    0x4,0x1,0x0        decfsz  DelayCounter1,1                                                      C:\MCC18\SRC\TRADIT~1\DELAYS\d1ktcyx.asm
00067a   d7f7     BRA       0x66a              bra     D1Kx                                                                 C:\MCC18\SRC\TRADIT~1\DELAYS\d1ktcyx.asm
00067c   0000     NOP                          nop                                                                          C:\MCC18\SRC\TRADIT~1\DELAYS\d1ktcyx.asm
00067e   0012     RETURN    0x0                return                                                                       C:\MCC18\SRC\TRADIT~1\DELAYS\d1ktcyx.asm
                                                                                                                            C:\MCC18\SRC\TRADIT~1\DELAYS\d1ktcyx.asm
                                               GLOBAL  Delay1KTCYx                                                          C:\MCC18\SRC\TRADIT~1\DELAYS\d1ktcyx.asm
                                               END                                                                          C:\MCC18\SRC\TRADIT~1\DELAYS\d1ktcyx.asm
                                                                                                                            C:\MCC18\SRC\TRADIT~1\DELAYS\d1ktcyx.asm
                                           DELAYDAT1      UDATA_ACS                                                         C:\MCC18\SRC\TRADIT~1\DELAYS\delayd1.asm
                                                                                                                            C:\MCC18\SRC\TRADIT~1\DELAYS\delayd1.asm
                                           DelayCounter1  RES 1                                                             C:\MCC18\SRC\TRADIT~1\DELAYS\delayd1.asm
                                                                                                                            C:\MCC18\SRC\TRADIT~1\DELAYS\delayd1.asm
                                                          GLOBAL DelayCounter1                                              C:\MCC18\SRC\TRADIT~1\DELAYS\delayd1.asm
                                           	                                                                                C:\MCC18\SRC\TRADIT~1\DELAYS\delayd1.asm
                                           	       END                                                                      C:\MCC18\SRC\TRADIT~1\DELAYS\delayd1.asm
                                           /* $Id: setddram.c,v 1.1 2003/12/09 22:52:09 GrosbaJ Exp $ */                    C:\MCC18\src\TRADIT~1\pmc\XLCD\setddram.c
                                           #include <p18cxxx.h>                                                             C:\MCC18\src\TRADIT~1\pmc\XLCD\setddram.c
                                           #include <xlcd.h>                                                                C:\MCC18\src\TRADIT~1\pmc\XLCD\setddram.c
                                                                                                                            C:\MCC18\src\TRADIT~1\pmc\XLCD\setddram.c
                                           /********************************************************************            C:\MCC18\src\TRADIT~1\pmc\XLCD\setddram.c
                                           *       Function Name:  SetDDRamAddr                                *            C:\MCC18\src\TRADIT~1\pmc\XLCD\setddram.c
                                           *       Return Value:   void                                        *            C:\MCC18\src\TRADIT~1\pmc\XLCD\setddram.c
                                           *       Parameters:     CGaddr: display data address                *            C:\MCC18\src\TRADIT~1\pmc\XLCD\setddram.c
                                           *       Description:    This routine sets the display data address  *            C:\MCC18\src\TRADIT~1\pmc\XLCD\setddram.c
                                           *                       of the Hitachi HD44780 LCD controller. The  *            C:\MCC18\src\TRADIT~1\pmc\XLCD\setddram.c
                                           *                       user must check to see if the LCD controller*            C:\MCC18\src\TRADIT~1\pmc\XLCD\setddram.c
                                           *                       is busy before calling this routine.        *            C:\MCC18\src\TRADIT~1\pmc\XLCD\setddram.c
                                           ********************************************************************/            C:\MCC18\src\TRADIT~1\pmc\XLCD\setddram.c
000496   cfd9     MOVFF     0xfd9,0xfe6    void SetDDRamAddr(unsigned char DDaddr)                                          C:\MCC18\src\TRADIT~1\pmc\XLCD\setddram.c
000498   ffe6                                                                                                               
00049a   cfda     MOVFF     0xfda,0xfe6                                                                                     
00049c   ffe6                                                                                                               
00049e   cfe1     MOVFF     0xfe1,0xfd9                                                                                     
0004a0   ffd9                                                                                                               
0004a2   cfe2     MOVFF     0xfe2,0xfda                                                                                     
0004a4   ffda                                                                                                               
                                           {                                                                                C:\MCC18\src\TRADIT~1\pmc\XLCD\setddram.c
                                           #ifdef BIT8                                     // 8-bit interface               C:\MCC18\src\TRADIT~1\pmc\XLCD\setddram.c
                                                   TRIS_DATA_PORT = 0;                     // Make port output              C:\MCC18\src\TRADIT~1\pmc\XLCD\setddram.c
                                                   DATA_PORT = DDaddr | 0b10000000;        // Write cmd and address to port C:\MCC18\src\TRADIT~1\pmc\XLCD\setddram.c
                                                   RW_PIN = 0;                             // Set the control bits          C:\MCC18\src\TRADIT~1\pmc\XLCD\setddram.c
                                                   RS_PIN = 0;                                                              C:\MCC18\src\TRADIT~1\pmc\XLCD\setddram.c
                                                   DelayFor18TCY();                                                         C:\MCC18\src\TRADIT~1\pmc\XLCD\setddram.c
                                                   E_PIN = 1;                              // Clock the cmd and address in  C:\MCC18\src\TRADIT~1\pmc\XLCD\setddram.c
                                                   DelayFor18TCY();                                                         C:\MCC18\src\TRADIT~1\pmc\XLCD\setddram.c
                                                   E_PIN = 0;                                                               C:\MCC18\src\TRADIT~1\pmc\XLCD\setddram.c
                                                   DelayFor18TCY();                                                         C:\MCC18\src\TRADIT~1\pmc\XLCD\setddram.c
                                                   TRIS_DATA_PORT = 0xff;                  // Make port input               C:\MCC18\src\TRADIT~1\pmc\XLCD\setddram.c
                                           #else                                           // 4-bit interface               C:\MCC18\src\TRADIT~1\pmc\XLCD\setddram.c
                                           #ifdef UPPER                                    // Upper nibble  interface       C:\MCC18\src\TRADIT~1\pmc\XLCD\setddram.c
                                                   TRIS_DATA_PORT &= 0x0f;                 // Make port output              C:\MCC18\src\TRADIT~1\pmc\XLCD\setddram.c
                                                   DATA_PORT &= 0x0f;                      // and write upper nibble        C:\MCC18\src\TRADIT~1\pmc\XLCD\setddram.c
                                                   DATA_PORT |= ((DDaddr | 0b10000000) & 0xf0);                             C:\MCC18\src\TRADIT~1\pmc\XLCD\setddram.c
                                           #else                                           // Lower nibble interface        C:\MCC18\src\TRADIT~1\pmc\XLCD\setddram.c
0004a6   0ef0     MOVLW     0xf0                   TRIS_DATA_PORT &= 0xf0;                 // Make port output              C:\MCC18\src\TRADIT~1\pmc\XLCD\setddram.c
0004a8   1693     ANDWF     0x93,0x1,0x0                                                                                    
0004aa   1681     ANDWF     0x81,0x1,0x0           DATA_PORT &= 0xf0;                      // and write upper nibble        C:\MCC18\src\TRADIT~1\pmc\XLCD\setddram.c
0004ac   0efd     MOVLW     0xfd                   DATA_PORT |= (((DDaddr | 0b10000000)>>4) & 0x0f);                        C:\MCC18\src\TRADIT~1\pmc\XLCD\setddram.c
0004ae   50db     MOVF      0xdb,0x0,0x0                                                                                    
0004b0   0980     IORLW     0x80                                                                                            
0004b2   38e8     SWAPF     0xe8,0x0,0x0                                                                                    
0004b4   0b0f     ANDLW     0xf                                                                                             
0004b6   0b0f     ANDLW     0xf                                                                                             
0004b8   1281     IORWF     0x81,0x1,0x0                                                                                    
                                           #endif                                                                           C:\MCC18\src\TRADIT~1\pmc\XLCD\setddram.c
0004ba   9c81     BCF       0x81,0x6,0x0           RW_PIN = 0;                             // Set control bits              C:\MCC18\src\TRADIT~1\pmc\XLCD\setddram.c
0004bc   9a81     BCF       0x81,0x5,0x0           RS_PIN = 0;                                                              C:\MCC18\src\TRADIT~1\pmc\XLCD\setddram.c
0004be   d80f     RCALL     0x4de                  DelayFor18TCY();                                                         C:\MCC18\src\TRADIT~1\pmc\XLCD\setddram.c
0004de   eceb     CALL      0x5d6,0x0                                                                                       
0004e0   f002                                                                                                               
0004e2   8881     BSF       0x81,0x4,0x0           E_PIN = 1;                              // Clock the cmd and address in  C:\MCC18\src\TRADIT~1\pmc\XLCD\setddram.c
0004e4   eceb     CALL      0x5d6,0x0              DelayFor18TCY();                                                         C:\MCC18\src\TRADIT~1\pmc\XLCD\setddram.c
0004e6   f002                                                                                                               
0004e8   9881     BCF       0x81,0x4,0x0           E_PIN = 0;                                                               C:\MCC18\src\TRADIT~1\pmc\XLCD\setddram.c
0004ea   0012     RETURN    0x0                                                                                             
                                           #ifdef UPPER                                    // Upper nibble interface        C:\MCC18\src\TRADIT~1\pmc\XLCD\setddram.c
                                                   DATA_PORT &= 0x0f;                      // Write lower nibble            C:\MCC18\src\TRADIT~1\pmc\XLCD\setddram.c
                                                   DATA_PORT |= ((DDaddr<<4)&0xf0);                                         C:\MCC18\src\TRADIT~1\pmc\XLCD\setddram.c
                                           #else                                           // Lower nibble interface        C:\MCC18\src\TRADIT~1\pmc\XLCD\setddram.c
0004c0   0ef0     MOVLW     0xf0                   DATA_PORT &= 0xf0;                      // Write lower nibble            C:\MCC18\src\TRADIT~1\pmc\XLCD\setddram.c
0004c2   1681     ANDWF     0x81,0x1,0x0                                                                                    
0004c4   0efd     MOVLW     0xfd                   DATA_PORT |= (DDaddr&0x0f);                                              C:\MCC18\src\TRADIT~1\pmc\XLCD\setddram.c
0004c6   50db     MOVF      0xdb,0x0,0x0                                                                                    
0004c8   0b0f     ANDLW     0xf                                                                                             
0004ca   1281     IORWF     0x81,0x1,0x0                                                                                    
                                           #endif                                                                           C:\MCC18\src\TRADIT~1\pmc\XLCD\setddram.c
0004cc   d808     RCALL     0x4de                  DelayFor18TCY();                                                         C:\MCC18\src\TRADIT~1\pmc\XLCD\setddram.c
                                                   E_PIN = 1;                              // Clock the cmd and address in  C:\MCC18\src\TRADIT~1\pmc\XLCD\setddram.c
                                                   DelayFor18TCY();                                                         C:\MCC18\src\TRADIT~1\pmc\XLCD\setddram.c
                                                   E_PIN = 0;                                                               C:\MCC18\src\TRADIT~1\pmc\XLCD\setddram.c
                                           #ifdef UPPER                                    // Upper nibble interface        C:\MCC18\src\TRADIT~1\pmc\XLCD\setddram.c
                                                   TRIS_DATA_PORT |= 0xf0;                 // Make port input               C:\MCC18\src\TRADIT~1\pmc\XLCD\setddram.c
                                           #else                                           // Lower nibble interface        C:\MCC18\src\TRADIT~1\pmc\XLCD\setddram.c
0004ce   0e0f     MOVLW     0xf                    TRIS_DATA_PORT |= 0x0f;                 // Make port input               C:\MCC18\src\TRADIT~1\pmc\XLCD\setddram.c
0004d0   1293     IORWF     0x93,0x1,0x0                                                                                    
                                           #endif                                                                           C:\MCC18\src\TRADIT~1\pmc\XLCD\setddram.c
                                           #endif                                                                           C:\MCC18\src\TRADIT~1\pmc\XLCD\setddram.c
                                                   return;                                                                  C:\MCC18\src\TRADIT~1\pmc\XLCD\setddram.c
0004d2   52e5     MOVF      0xe5,0x1,0x0   }                                                                                C:\MCC18\src\TRADIT~1\pmc\XLCD\setddram.c
0004d4   cfe5     MOVFF     0xfe5,0xfda                                                                                     
0004d6   ffda                                                                                                               
0004d8   cfe7     MOVFF     0xfe7,0xfd9                                                                                     
0004da   ffd9                                                                                                               
0004dc   0012     RETURN    0x0                                                                                             
                                                                                                                            C:\MCC18\src\TRADIT~1\pmc\XLCD\setddram.c
                                           ;	RCS Header $Id: cmath18.asm,v 1.5 2006/01/12 23:16:38 rhinec Exp $             C:\MCC18\SRC\TRADIT~1\MATH\cmath18.asm
                                                                                                                            C:\MCC18\SRC\TRADIT~1\MATH\cmath18.asm
                                           ;       CMATH18 DATA DEFINITION FILE                                             C:\MCC18\SRC\TRADIT~1\MATH\cmath18.asm
                                                                                                                            C:\MCC18\SRC\TRADIT~1\MATH\cmath18.asm
                                           ;******************************************************************************* C:\MCC18\SRC\TRADIT~1\MATH\cmath18.asm
                                           ;   VARIABLE ALLOCATION - Core math library routines                             C:\MCC18\SRC\TRADIT~1\MATH\cmath18.asm
                                           ;******************************************************************************* C:\MCC18\SRC\TRADIT~1\MATH\cmath18.asm
                                                                                                                            C:\MCC18\SRC\TRADIT~1\MATH\cmath18.asm
                                           MATH_DATA      UDATA_ACS                                                         C:\MCC18\SRC\TRADIT~1\MATH\cmath18.asm
                                                                                                                            C:\MCC18\SRC\TRADIT~1\MATH\cmath18.asm
                                           SIGN		RES 1       ; save location for sign in MSB                                C:\MCC18\SRC\TRADIT~1\MATH\cmath18.asm
                                           __FPFLAGSbits                                                                    C:\MCC18\SRC\TRADIT~1\MATH\cmath18.asm
                                           __FPFLAGS		RES 1       ; floating point library exception flags                  C:\MCC18\SRC\TRADIT~1\MATH\cmath18.asm
                                                                                                                            C:\MCC18\SRC\TRADIT~1\MATH\cmath18.asm
                                                   GLOBAL  SIGN, __FPFLAGS, __FPFLAGSbits                                   C:\MCC18\SRC\TRADIT~1\MATH\cmath18.asm
                                           	                                                                                C:\MCC18\SRC\TRADIT~1\MATH\cmath18.asm
                                                   END                                                                      C:\MCC18\SRC\TRADIT~1\MATH\cmath18.asm
                                                                                                                            C:\MCC18\src\TRADIT~1\stdclib\__init.c
                                           /** @name __init                                                                 C:\MCC18\src\TRADIT~1\stdclib\__init.c
                                            * The {\bf __init} is called if the linker can not find a                       C:\MCC18\src\TRADIT~1\stdclib\__init.c
                                            * user defined version for it                                                   C:\MCC18\src\TRADIT~1\stdclib\__init.c
                                            */                                                                              C:\MCC18\src\TRADIT~1\stdclib\__init.c
                                                                                                                            C:\MCC18\src\TRADIT~1\stdclib\__init.c
                                           void __init (void)                                                               C:\MCC18\src\TRADIT~1\stdclib\__init.c
                                           {                                                                                C:\MCC18\src\TRADIT~1\stdclib\__init.c
0006b8   0012     RETURN    0x0            }                                                                                C:\MCC18\src\TRADIT~1\stdclib\__init.c
                                                                                                                            C:\MCC18\src\TRADIT~1\stdclib\__init.c
